ARM GAS  C:\Users\casey\AppData\Local\Temp\ccObT9am.s 			page 1


   1              		.syntax unified
   2              		.cpu cortex-m0
   3              		.fpu softvfp
   4              		.eabi_attribute 20, 1
   5              		.eabi_attribute 21, 1
   6              		.eabi_attribute 23, 3
   7              		.eabi_attribute 24, 1
   8              		.eabi_attribute 25, 1
   9              		.eabi_attribute 26, 1
  10              		.eabi_attribute 30, 1
  11              		.eabi_attribute 34, 0
  12              		.eabi_attribute 18, 4
  13              		.thumb
  14              		.syntax unified
  15              		.file	"CAN_stuff.c"
  16              		.text
  17              	.Ltext0:
  18              		.cfi_sections	.debug_frame
  19              		.section	.text.SendCANPacket,"ax",%progbits
  20              		.align	2
  21              		.global	SendCANPacket
  22              		.code	16
  23              		.thumb_func
  24              		.type	SendCANPacket, %function
  25              	SendCANPacket:
  26              	.LFB34:
  27              		.file 1 "CAN_stuff.c"
   1:CAN_stuff.c   **** /* ========================================
   2:CAN_stuff.c   ****  *
   3:CAN_stuff.c   ****  * Copyright YOUR COMPANY, THE YEAR
   4:CAN_stuff.c   ****  * All Rights Reserved
   5:CAN_stuff.c   ****  * UNPUBLISHED, LICENSED SOFTWARE.
   6:CAN_stuff.c   ****  *
   7:CAN_stuff.c   ****  * CONFIDENTIAL AND PROPRIETARY INFORMATION
   8:CAN_stuff.c   ****  * WHICH IS THE PROPERTY OF your company.
   9:CAN_stuff.c   ****  *
  10:CAN_stuff.c   ****  * ========================================
  11:CAN_stuff.c   **** */
  12:CAN_stuff.c   **** 
  13:CAN_stuff.c   **** #include "CAN_Stuff.h"
  14:CAN_stuff.c   **** 
  15:CAN_stuff.c   **** typedef struct
  16:CAN_stuff.c   **** {
  17:CAN_stuff.c   ****     uint16_t id;
  18:CAN_stuff.c   ****     uint8_t dlc;
  19:CAN_stuff.c   ****     uint8_t data[8];
  20:CAN_stuff.c   **** } CANPacket;
  21:CAN_stuff.c   **** 
  22:CAN_stuff.c   **** volatile uint8_t messagePresentFlag = 0xFF;
  23:CAN_stuff.c   **** volatile uint8_t messageReadFlag = 0x0;
  24:CAN_stuff.c   **** uint8_t FIFOSize(void);
  25:CAN_stuff.c   **** void countAddFIFO(void);
  26:CAN_stuff.c   **** void countRemoveFIFO(void);
  27:CAN_stuff.c   **** 
  28:CAN_stuff.c   **** #define FIFO_SIZE   16
  29:CAN_stuff.c   **** volatile CANPacket latestMessage[FIFO_SIZE];//internal to this port acts like a FIFO with 10 packet
  30:CAN_stuff.c   **** volatile uint8_t latestMessageHead = 0; //which index to read
ARM GAS  C:\Users\casey\AppData\Local\Temp\ccObT9am.s 			page 2


  31:CAN_stuff.c   **** volatile uint8_t latestMessageTail = 0; //which index to write to next
  32:CAN_stuff.c   **** volatile uint8_t latestMessageFull = 0; //FIFO is full
  33:CAN_stuff.c   **** 
  34:CAN_stuff.c   **** CY_ISR_PROTO(CAN_FLAG_ISR);
  35:CAN_stuff.c   **** 
  36:CAN_stuff.c   **** int deviceAddress;
  37:CAN_stuff.c   **** int deviceGroup;
  38:CAN_stuff.c   **** CAN_RX_CFG rxMailbox;
  39:CAN_stuff.c   **** 
  40:CAN_stuff.c   **** int mailbox = 0;
  41:CAN_stuff.c   **** 
  42:CAN_stuff.c   **** volatile CANPacket packet;
  43:CAN_stuff.c   **** 
  44:CAN_stuff.c   **** CY_ISR_PROTO(ISR_CAN);
  45:CAN_stuff.c   **** 
  46:CAN_stuff.c   **** CAN_TX_MSG messagePWM;
  47:CAN_stuff.c   **** volatile uint8 receiveMailboxNumber = 0xFFu;
  48:CAN_stuff.c   **** 
  49:CAN_stuff.c   **** volatile uint16 CAN_time_LED = 0;
  50:CAN_stuff.c   **** 
  51:CAN_stuff.c   **** int SendCANPacket(CANPacket *packetToSend)
  52:CAN_stuff.c   **** {
  28              		.loc 1 52 0
  29              		.cfi_startproc
  30              		@ args = 0, pretend = 0, frame = 24
  31              		@ frame_needed = 0, uses_anonymous_args = 0
  32              	.LVL0:
  33 0000 10B5     		push	{r4, lr}
  34              		.cfi_def_cfa_offset 8
  35              		.cfi_offset 4, -8
  36              		.cfi_offset 14, -4
  37 0002 86B0     		sub	sp, sp, #24
  38              		.cfi_def_cfa_offset 32
  53:CAN_stuff.c   ****     if(!packetToSend) {return ERROR_NULL_POINTER;}
  39              		.loc 1 53 0
  40 0004 0028     		cmp	r0, #0
  41 0006 15D0     		beq	.L3
  54:CAN_stuff.c   ****     CAN_TX_MSG PSoCMessage;//CAN structure
  55:CAN_stuff.c   ****     CAN_DATA_BYTES_MSG PSoCData;//CAN data
  56:CAN_stuff.c   ****     PSoCMessage.id = packetToSend->id;
  42              		.loc 1 56 0
  43 0008 0388     		ldrh	r3, [r0]
  44 000a 02AC     		add	r4, sp, #8
  45 000c 0293     		str	r3, [sp, #8]
  57:CAN_stuff.c   ****     PSoCMessage.rtr = 0x0;
  46              		.loc 1 57 0
  47 000e 0023     		movs	r3, #0
  48 0010 2371     		strb	r3, [r4, #4]
  58:CAN_stuff.c   ****     PSoCMessage.ide = 0x0;//Not extended
  49              		.loc 1 58 0
  50 0012 6371     		strb	r3, [r4, #5]
  59:CAN_stuff.c   ****     PSoCMessage.dlc = packetToSend->dlc;
  51              		.loc 1 59 0
  52 0014 8278     		ldrb	r2, [r0, #2]
  53 0016 A271     		strb	r2, [r4, #6]
  60:CAN_stuff.c   ****     PSoCMessage.irq = 0x0;
  54              		.loc 1 60 0
ARM GAS  C:\Users\casey\AppData\Local\Temp\ccObT9am.s 			page 3


  55 0018 E371     		strb	r3, [r4, #7]
  61:CAN_stuff.c   ****     PSoCMessage.msg = &PSoCData;
  56              		.loc 1 61 0
  57 001a 6B46     		mov	r3, sp
  58 001c 0593     		str	r3, [sp, #20]
  62:CAN_stuff.c   ****     
  63:CAN_stuff.c   ****     memcpy(PSoCData.byte, packetToSend->data, 8);
  59              		.loc 1 63 0
  60 001e C11C     		adds	r1, r0, #3
  61 0020 0822     		movs	r2, #8
  62 0022 6846     		mov	r0, sp
  63              	.LVL1:
  64 0024 FFF7FEFF 		bl	memcpy
  65              	.LVL2:
  64:CAN_stuff.c   **** 
  65:CAN_stuff.c   ****     if(CAN_SendMsg(&PSoCMessage) == CYRET_SUCCESS) {
  66              		.loc 1 65 0
  67 0028 2000     		movs	r0, r4
  68 002a FFF7FEFF 		bl	CAN_SendMsg
  69              	.LVL3:
  70 002e 0028     		cmp	r0, #0
  71 0030 02D1     		bne	.L4
  72 0032 02E0     		b	.L2
  73              	.LVL4:
  74              	.L3:
  53:CAN_stuff.c   ****     CAN_TX_MSG PSoCMessage;//CAN structure
  75              		.loc 1 53 0
  76 0034 0220     		movs	r0, #2
  77              	.LVL5:
  78 0036 00E0     		b	.L2
  79              	.L4:
  66:CAN_stuff.c   ****         return ERROR_NONE;
  67:CAN_stuff.c   ****     } else
  68:CAN_stuff.c   ****     {
  69:CAN_stuff.c   ****         return ERROR_GENERIC_ERROR;
  80              		.loc 1 69 0
  81 0038 0120     		movs	r0, #1
  82              	.L2:
  70:CAN_stuff.c   ****     }
  71:CAN_stuff.c   **** }
  83              		.loc 1 71 0
  84 003a 06B0     		add	sp, sp, #24
  85              		@ sp needed
  86 003c 10BD     		pop	{r4, pc}
  87              		.cfi_endproc
  88              	.LFE34:
  89              		.size	SendCANPacket, .-SendCANPacket
  90 003e C046     		.section	.text.InitCAN,"ax",%progbits
  91              		.align	2
  92              		.global	InitCAN
  93              		.code	16
  94              		.thumb_func
  95              		.type	InitCAN, %function
  96              	InitCAN:
  97              	.LFB35:
  72:CAN_stuff.c   **** 
  73:CAN_stuff.c   **** void InitCAN() {
ARM GAS  C:\Users\casey\AppData\Local\Temp\ccObT9am.s 			page 4


  98              		.loc 1 73 0
  99              		.cfi_startproc
 100              		@ args = 0, pretend = 0, frame = 0
 101              		@ frame_needed = 0, uses_anonymous_args = 0
 102 0000 70B5     		push	{r4, r5, r6, lr}
 103              		.cfi_def_cfa_offset 16
 104              		.cfi_offset 4, -16
 105              		.cfi_offset 5, -12
 106              		.cfi_offset 6, -8
 107              		.cfi_offset 14, -4
  74:CAN_stuff.c   ****     
  75:CAN_stuff.c   ****     CAN_Start();//must name CAN Top Design block as "CAN"
 108              		.loc 1 75 0
 109 0002 FFF7FEFF 		bl	CAN_Start
 110              	.LVL6:
  76:CAN_stuff.c   ****     
  77:CAN_stuff.c   ****     //TODO: I'm sure there's a better way of doing this part
  78:CAN_stuff.c   ****     // deviceGroup = deviceGroupInput & 0xF; // 4bits of ID
  79:CAN_stuff.c   ****     // deviceAddress = deviceAddressInput & (0x3f);//6bits of ID
  80:CAN_stuff.c   ****     
  81:CAN_stuff.c   ****     //sets up inidvidual recieve mailbox (3rd priority mailbox)
  82:CAN_stuff.c   ****     rxMailbox.rxmailbox = 0;
 111              		.loc 1 82 0
 112 0006 114C     		ldr	r4, .L6
 113 0008 0026     		movs	r6, #0
 114 000a 2670     		strb	r6, [r4]
  83:CAN_stuff.c   ****     // rxMailbox.rxacr = ((deviceGroup << 6)|(deviceAddress)) << 21;  // first 11 bits are the CAN 
  84:CAN_stuff.c   ****     rxMailbox.rxamr = 0x801FFFFF; // what bits to ignore
 115              		.loc 1 84 0
 116 000c 104D     		ldr	r5, .L6+4
 117 000e A560     		str	r5, [r4, #8]
  85:CAN_stuff.c   ****     rxMailbox.rxcmd = CAN_RX_CMD_REG(CAN_RX_MAILBOX_0);//need to know what this is
 118              		.loc 1 85 0
 119 0010 104B     		ldr	r3, .L6+8
 120 0012 1B68     		ldr	r3, [r3]
 121 0014 6360     		str	r3, [r4, #4]
  86:CAN_stuff.c   ****     CAN_RxBufConfig(&rxMailbox);
 122              		.loc 1 86 0
 123 0016 2000     		movs	r0, r4
 124 0018 FFF7FEFF 		bl	CAN_RxBufConfig
 125              	.LVL7:
  87:CAN_stuff.c   ****     
  88:CAN_stuff.c   ****     //setup broadcast recieve mailbox (1st priority mailbox)
  89:CAN_stuff.c   ****     rxMailbox.rxmailbox = 1;
 126              		.loc 1 89 0
 127 001c 0123     		movs	r3, #1
 128 001e 2370     		strb	r3, [r4]
  90:CAN_stuff.c   ****     rxMailbox.rxacr = ((0x0 << 6)|(0x0)) << 21; //0x20F<<21; // first 11 bits are the CAN ID that i
 129              		.loc 1 90 0
 130 0020 E660     		str	r6, [r4, #12]
  91:CAN_stuff.c   ****     rxMailbox.rxamr = 0x801FFFFF; // what bits to ignore
 131              		.loc 1 91 0
 132 0022 A560     		str	r5, [r4, #8]
  92:CAN_stuff.c   ****     rxMailbox.rxcmd = CAN_RX_CMD_REG(CAN_RX_MAILBOX_1);//need to know what this is
 133              		.loc 1 92 0
 134 0024 0C4B     		ldr	r3, .L6+12
 135 0026 1B68     		ldr	r3, [r3]
ARM GAS  C:\Users\casey\AppData\Local\Temp\ccObT9am.s 			page 5


 136 0028 6360     		str	r3, [r4, #4]
  93:CAN_stuff.c   ****     CAN_RxBufConfig(&rxMailbox);
 137              		.loc 1 93 0
 138 002a 2000     		movs	r0, r4
 139 002c FFF7FEFF 		bl	CAN_RxBufConfig
 140              	.LVL8:
  94:CAN_stuff.c   ****     
  95:CAN_stuff.c   ****     //setup group broadcast recieve mailbox (2nd priority mailbox)
  96:CAN_stuff.c   ****     rxMailbox.rxmailbox = 2;
 141              		.loc 1 96 0
 142 0030 0223     		movs	r3, #2
 143 0032 2370     		strb	r3, [r4]
  97:CAN_stuff.c   ****     // rxMailbox.rxacr = ((deviceGroup << 6)|(0x3F)) << 21; //0x20F<<21; // first 11 bits are the C
  98:CAN_stuff.c   ****     rxMailbox.rxamr = 0x801FFFFF; // what bits to ignore
 144              		.loc 1 98 0
 145 0034 A560     		str	r5, [r4, #8]
  99:CAN_stuff.c   ****     rxMailbox.rxcmd = CAN_RX_CMD_REG(CAN_RX_MAILBOX_2);//need to know what this is
 146              		.loc 1 99 0
 147 0036 094B     		ldr	r3, .L6+16
 148 0038 1B68     		ldr	r3, [r3]
 149 003a 6360     		str	r3, [r4, #4]
 100:CAN_stuff.c   ****     //CAN_RxBufConfig(&rxMailbox);
 101:CAN_stuff.c   ****     
 102:CAN_stuff.c   ****     CAN_GlobalIntEnable();
 150              		.loc 1 102 0
 151 003c FFF7FEFF 		bl	CAN_GlobalIntEnable
 152              	.LVL9:
 103:CAN_stuff.c   ****     CyIntSetVector(CAN_ISR_NUMBER, CAN_FLAG_ISR);
 153              		.loc 1 103 0
 154 0040 0749     		ldr	r1, .L6+20
 155 0042 1C20     		movs	r0, #28
 156 0044 FFF7FEFF 		bl	CyIntSetVector
 157              	.LVL10:
 104:CAN_stuff.c   **** }
 158              		.loc 1 104 0
 159              		@ sp needed
 160 0048 70BD     		pop	{r4, r5, r6, pc}
 161              	.L7:
 162 004a C046     		.align	2
 163              	.L6:
 164 004c 00000000 		.word	rxMailbox
 165 0050 FFFF1F80 		.word	-2145386497
 166 0054 A0002E40 		.word	1076756640
 167 0058 C0002E40 		.word	1076756672
 168 005c E0002E40 		.word	1076756704
 169 0060 00000000 		.word	CAN_FLAG_ISR
 170              		.cfi_endproc
 171              	.LFE35:
 172              		.size	InitCAN, .-InitCAN
 173              		.section	.text.FIFOSize,"ax",%progbits
 174              		.align	2
 175              		.global	FIFOSize
 176              		.code	16
 177              		.thumb_func
 178              		.type	FIFOSize, %function
 179              	FIFOSize:
 180              	.LFB38:
ARM GAS  C:\Users\casey\AppData\Local\Temp\ccObT9am.s 			page 6


 105:CAN_stuff.c   **** 
 106:CAN_stuff.c   **** CY_ISR(CAN_FLAG_ISR)
 107:CAN_stuff.c   **** {
 108:CAN_stuff.c   ****     CAN_time_LED = 1000;
 109:CAN_stuff.c   ****     //*(reg32*)0x402F0000 = CAN_RX_MESSAGE_MASK & CAN_SST_FAILURE_MASK & CAN_CRC_ERROR_MASK; //Clea
 110:CAN_stuff.c   ****     CAN_INT_SR_REG = CAN_RX_MESSAGE_MASK;
 111:CAN_stuff.c   ****     uint32_t statusReg = (uint32_t) CAN_BUF_SR_REG; //Hardcoded for speed, translation from reg
 112:CAN_stuff.c   ****     uint8_t mailbox;
 113:CAN_stuff.c   ****     
 114:CAN_stuff.c   ****     if(statusReg & 0b1) { // mailbox0 is full (individual)
 115:CAN_stuff.c   ****         mailbox = CAN_RX_MAILBOX_0;
 116:CAN_stuff.c   ****     }
 117:CAN_stuff.c   ****     else if(statusReg & 0b10) { // mailbox1 is full (broadcast)
 118:CAN_stuff.c   ****         mailbox = CAN_RX_MAILBOX_1;
 119:CAN_stuff.c   ****     }    
 120:CAN_stuff.c   ****     else if(statusReg & 0b100) { // mailbox2 is full (group broadcast)
 121:CAN_stuff.c   ****         mailbox = CAN_RX_MAILBOX_2;
 122:CAN_stuff.c   ****     } 
 123:CAN_stuff.c   ****     else if(statusReg & 0b1000) { // mailbox3 is full currently recieves anything enable in top des
 124:CAN_stuff.c   ****         mailbox = CAN_RX_MAILBOX_3;
 125:CAN_stuff.c   ****     }
 126:CAN_stuff.c   ****     
 127:CAN_stuff.c   ****     latestMessage[latestMessageTail].id = CAN_GET_RX_ID(mailbox);
 128:CAN_stuff.c   ****     latestMessage[latestMessageTail].dlc = CAN_GET_DLC(mailbox);
 129:CAN_stuff.c   ****     latestMessage[latestMessageTail].data[0] = CAN_RX_DATA_BYTE1(mailbox);
 130:CAN_stuff.c   ****     latestMessage[latestMessageTail].data[1] = CAN_RX_DATA_BYTE2(mailbox);
 131:CAN_stuff.c   ****     latestMessage[latestMessageTail].data[2] = CAN_RX_DATA_BYTE3(mailbox);
 132:CAN_stuff.c   ****     latestMessage[latestMessageTail].data[3] = CAN_RX_DATA_BYTE4(mailbox);
 133:CAN_stuff.c   ****     latestMessage[latestMessageTail].data[4] = CAN_RX_DATA_BYTE5(mailbox);
 134:CAN_stuff.c   ****     latestMessage[latestMessageTail].data[5] = CAN_RX_DATA_BYTE6(mailbox);
 135:CAN_stuff.c   ****     latestMessage[latestMessageTail].data[6] = CAN_RX_DATA_BYTE7(mailbox);
 136:CAN_stuff.c   ****     latestMessage[latestMessageTail].data[7] = CAN_RX_DATA_BYTE8(mailbox);
 137:CAN_stuff.c   ****     countAddFIFO();
 138:CAN_stuff.c   **** 
 139:CAN_stuff.c   ****     //CAN_ReceiveMsg(messagePresentFlag);
 140:CAN_stuff.c   ****     CAN_RX_ACK_MESSAGE(mailbox);
 141:CAN_stuff.c   **** }
 142:CAN_stuff.c   **** 
 143:CAN_stuff.c   **** int PollAndReceiveCANPacket(CANPacket *receivedPacket)
 144:CAN_stuff.c   **** {
 145:CAN_stuff.c   ****     if(!receivedPacket)
 146:CAN_stuff.c   ****         return ERROR_NULL_POINTER;
 147:CAN_stuff.c   ****     
 148:CAN_stuff.c   ****     volatile uint8_t size = FIFOSize();
 149:CAN_stuff.c   ****     if(size)
 150:CAN_stuff.c   ****     {
 151:CAN_stuff.c   ****         *(receivedPacket) = latestMessage[latestMessageHead];
 152:CAN_stuff.c   ****         countRemoveFIFO();
 153:CAN_stuff.c   ****         return ERROR_NONE;
 154:CAN_stuff.c   ****     }
 155:CAN_stuff.c   ****     
 156:CAN_stuff.c   ****     return 0x02; //No message received error
 157:CAN_stuff.c   **** }
 158:CAN_stuff.c   **** 
 159:CAN_stuff.c   **** 
 160:CAN_stuff.c   **** //helper function calculate size of Fifo
 161:CAN_stuff.c   **** uint8_t FIFOSize(){
ARM GAS  C:\Users\casey\AppData\Local\Temp\ccObT9am.s 			page 7


 181              		.loc 1 161 0
 182              		.cfi_startproc
 183              		@ args = 0, pretend = 0, frame = 0
 184              		@ frame_needed = 0, uses_anonymous_args = 0
 185              		@ link register save eliminated.
 162:CAN_stuff.c   ****     if(latestMessageFull) {
 186              		.loc 1 162 0
 187 0000 104B     		ldr	r3, .L12
 188 0002 1878     		ldrb	r0, [r3]
 189 0004 C0B2     		uxtb	r0, r0
 190 0006 0028     		cmp	r0, #0
 191 0008 19D1     		bne	.L11
 163:CAN_stuff.c   ****         return FIFO_SIZE;
 164:CAN_stuff.c   ****     }
 165:CAN_stuff.c   ****     else if(latestMessageHead < latestMessageTail) {
 192              		.loc 1 165 0
 193 000a 5A78     		ldrb	r2, [r3, #1]
 194 000c D2B2     		uxtb	r2, r2
 195 000e 9B78     		ldrb	r3, [r3, #2]
 196 0010 DBB2     		uxtb	r3, r3
 197 0012 9A42     		cmp	r2, r3
 198 0014 05D2     		bcs	.L10
 166:CAN_stuff.c   ****         return latestMessageTail - latestMessageHead;
 199              		.loc 1 166 0
 200 0016 0B4A     		ldr	r2, .L12
 201 0018 9378     		ldrb	r3, [r2, #2]
 202 001a 5078     		ldrb	r0, [r2, #1]
 203 001c 181A     		subs	r0, r3, r0
 204 001e C0B2     		uxtb	r0, r0
 205 0020 0EE0     		b	.L9
 206              	.L10:
 167:CAN_stuff.c   ****     }
 168:CAN_stuff.c   ****     else if(latestMessageHead > latestMessageTail) {
 207              		.loc 1 168 0
 208 0022 084B     		ldr	r3, .L12
 209 0024 5A78     		ldrb	r2, [r3, #1]
 210 0026 D2B2     		uxtb	r2, r2
 211 0028 9B78     		ldrb	r3, [r3, #2]
 212 002a DBB2     		uxtb	r3, r3
 213 002c 9A42     		cmp	r2, r3
 214 002e 07D9     		bls	.L9
 169:CAN_stuff.c   ****         return (FIFO_SIZE - latestMessageHead) + latestMessageTail;
 215              		.loc 1 169 0
 216 0030 044A     		ldr	r2, .L12
 217 0032 9378     		ldrb	r3, [r2, #2]
 218 0034 5078     		ldrb	r0, [r2, #1]
 219 0036 181A     		subs	r0, r3, r0
 220 0038 1030     		adds	r0, r0, #16
 221 003a C0B2     		uxtb	r0, r0
 222 003c 00E0     		b	.L9
 223              	.L11:
 163:CAN_stuff.c   ****     }
 224              		.loc 1 163 0
 225 003e 1020     		movs	r0, #16
 226              	.L9:
 170:CAN_stuff.c   ****     }
 171:CAN_stuff.c   ****     else { // latestMessageHead == latestMessageTail && !latestMessageFull
ARM GAS  C:\Users\casey\AppData\Local\Temp\ccObT9am.s 			page 8


 172:CAN_stuff.c   ****         return 0;
 173:CAN_stuff.c   ****     }
 174:CAN_stuff.c   **** }
 227              		.loc 1 174 0
 228              		@ sp needed
 229 0040 7047     		bx	lr
 230              	.L13:
 231 0042 C046     		.align	2
 232              	.L12:
 233 0044 00000000 		.word	.LANCHOR0
 234              		.cfi_endproc
 235              	.LFE38:
 236              		.size	FIFOSize, .-FIFOSize
 237              		.section	.text.countAddFIFO,"ax",%progbits
 238              		.align	2
 239              		.global	countAddFIFO
 240              		.code	16
 241              		.thumb_func
 242              		.type	countAddFIFO, %function
 243              	countAddFIFO:
 244              	.LFB39:
 175:CAN_stuff.c   **** 
 176:CAN_stuff.c   **** void countAddFIFO(){ 
 245              		.loc 1 176 0
 246              		.cfi_startproc
 247              		@ args = 0, pretend = 0, frame = 0
 248              		@ frame_needed = 0, uses_anonymous_args = 0
 249              		@ link register save eliminated.
 177:CAN_stuff.c   ****     latestMessageTail++;
 250              		.loc 1 177 0
 251 0000 124A     		ldr	r2, .L17
 252 0002 9378     		ldrb	r3, [r2, #2]
 253 0004 0133     		adds	r3, r3, #1
 254 0006 DBB2     		uxtb	r3, r3
 255 0008 9370     		strb	r3, [r2, #2]
 178:CAN_stuff.c   ****     if(latestMessageTail >= FIFO_SIZE){
 256              		.loc 1 178 0
 257 000a 9378     		ldrb	r3, [r2, #2]
 258 000c DBB2     		uxtb	r3, r3
 259 000e 0F2B     		cmp	r3, #15
 260 0010 02D9     		bls	.L15
 179:CAN_stuff.c   ****         latestMessageTail = 0;
 261              		.loc 1 179 0
 262 0012 0022     		movs	r2, #0
 263 0014 0D4B     		ldr	r3, .L17
 264 0016 9A70     		strb	r2, [r3, #2]
 265              	.L15:
 180:CAN_stuff.c   ****     }
 181:CAN_stuff.c   ****     if(latestMessageFull) {
 266              		.loc 1 181 0
 267 0018 0C4B     		ldr	r3, .L17
 268 001a 1B78     		ldrb	r3, [r3]
 269 001c 002B     		cmp	r3, #0
 270 001e 0BD0     		beq	.L16
 182:CAN_stuff.c   ****         latestMessageHead++;
 271              		.loc 1 182 0
 272 0020 0A4A     		ldr	r2, .L17
ARM GAS  C:\Users\casey\AppData\Local\Temp\ccObT9am.s 			page 9


 273 0022 5378     		ldrb	r3, [r2, #1]
 274 0024 0133     		adds	r3, r3, #1
 275 0026 DBB2     		uxtb	r3, r3
 276 0028 5370     		strb	r3, [r2, #1]
 183:CAN_stuff.c   ****         if(latestMessageHead >= FIFO_SIZE) {
 277              		.loc 1 183 0
 278 002a 5378     		ldrb	r3, [r2, #1]
 279 002c DBB2     		uxtb	r3, r3
 280 002e 0F2B     		cmp	r3, #15
 281 0030 02D9     		bls	.L16
 184:CAN_stuff.c   ****             latestMessageHead = 0;
 282              		.loc 1 184 0
 283 0032 0022     		movs	r2, #0
 284 0034 054B     		ldr	r3, .L17
 285 0036 5A70     		strb	r2, [r3, #1]
 286              	.L16:
 185:CAN_stuff.c   ****         }
 186:CAN_stuff.c   ****     }
 187:CAN_stuff.c   ****     latestMessageFull = (latestMessageHead == latestMessageTail);
 287              		.loc 1 187 0
 288 0038 044A     		ldr	r2, .L17
 289 003a 5378     		ldrb	r3, [r2, #1]
 290 003c 9178     		ldrb	r1, [r2, #2]
 291 003e 5B1A     		subs	r3, r3, r1
 292 0040 5942     		rsbs	r1, r3, #0
 293 0042 4B41     		adcs	r3, r3, r1
 294 0044 DBB2     		uxtb	r3, r3
 295 0046 1370     		strb	r3, [r2]
 188:CAN_stuff.c   **** }
 296              		.loc 1 188 0
 297              		@ sp needed
 298 0048 7047     		bx	lr
 299              	.L18:
 300 004a C046     		.align	2
 301              	.L17:
 302 004c 00000000 		.word	.LANCHOR0
 303              		.cfi_endproc
 304              	.LFE39:
 305              		.size	countAddFIFO, .-countAddFIFO
 306              		.section	.text.CAN_FLAG_ISR,"ax",%progbits
 307              		.align	2
 308              		.global	CAN_FLAG_ISR
 309              		.code	16
 310              		.thumb_func
 311              		.type	CAN_FLAG_ISR, %function
 312              	CAN_FLAG_ISR:
 313              	.LFB36:
 107:CAN_stuff.c   ****     CAN_time_LED = 1000;
 314              		.loc 1 107 0
 315              		.cfi_startproc
 316              		@ args = 0, pretend = 0, frame = 0
 317              		@ frame_needed = 0, uses_anonymous_args = 0
 318 0000 70B5     		push	{r4, r5, r6, lr}
 319              		.cfi_def_cfa_offset 16
 320              		.cfi_offset 4, -16
 321              		.cfi_offset 5, -12
 322              		.cfi_offset 6, -8
ARM GAS  C:\Users\casey\AppData\Local\Temp\ccObT9am.s 			page 10


 323              		.cfi_offset 14, -4
 108:CAN_stuff.c   ****     //*(reg32*)0x402F0000 = CAN_RX_MESSAGE_MASK & CAN_SST_FAILURE_MASK & CAN_CRC_ERROR_MASK; //Clea
 324              		.loc 1 108 0
 325 0002 FA22     		movs	r2, #250
 326 0004 9200     		lsls	r2, r2, #2
 327 0006 464B     		ldr	r3, .L27
 328 0008 9A80     		strh	r2, [r3, #4]
 110:CAN_stuff.c   ****     uint32_t statusReg = (uint32_t) CAN_BUF_SR_REG; //Hardcoded for speed, translation from reg
 329              		.loc 1 110 0
 330 000a 8022     		movs	r2, #128
 331 000c 5201     		lsls	r2, r2, #5
 332 000e 454B     		ldr	r3, .L27+4
 333 0010 1A60     		str	r2, [r3]
 111:CAN_stuff.c   ****     uint8_t mailbox;
 334              		.loc 1 111 0
 335 0012 454B     		ldr	r3, .L27+8
 336 0014 1B68     		ldr	r3, [r3]
 337              	.LVL11:
 114:CAN_stuff.c   ****         mailbox = CAN_RX_MAILBOX_0;
 338              		.loc 1 114 0
 339 0016 DA07     		lsls	r2, r3, #31
 340 0018 06D4     		bmi	.L23
 117:CAN_stuff.c   ****         mailbox = CAN_RX_MAILBOX_1;
 341              		.loc 1 117 0
 342 001a 9A07     		lsls	r2, r3, #30
 343 001c 06D4     		bmi	.L24
 120:CAN_stuff.c   ****         mailbox = CAN_RX_MAILBOX_2;
 344              		.loc 1 120 0
 345 001e 5A07     		lsls	r2, r3, #29
 346 0020 06D4     		bmi	.L25
 123:CAN_stuff.c   ****         mailbox = CAN_RX_MAILBOX_3;
 347              		.loc 1 123 0
 348 0022 1B07     		lsls	r3, r3, #28
 349 0024 06D4     		bmi	.L26
 350              	.LVL12:
 351 0026 06E0     		b	.L20
 352              	.LVL13:
 353              	.L23:
 115:CAN_stuff.c   ****     }
 354              		.loc 1 115 0
 355 0028 0024     		movs	r4, #0
 356 002a 04E0     		b	.L20
 357              	.L24:
 118:CAN_stuff.c   ****     }    
 358              		.loc 1 118 0
 359 002c 0124     		movs	r4, #1
 360 002e 02E0     		b	.L20
 361              	.L25:
 121:CAN_stuff.c   ****     } 
 362              		.loc 1 121 0
 363 0030 0224     		movs	r4, #2
 364 0032 00E0     		b	.L20
 365              	.LVL14:
 366              	.L26:
 124:CAN_stuff.c   ****     }
 367              		.loc 1 124 0
 368 0034 0324     		movs	r4, #3
ARM GAS  C:\Users\casey\AppData\Local\Temp\ccObT9am.s 			page 11


 369              	.L20:
 370              	.LVL15:
 127:CAN_stuff.c   ****     latestMessage[latestMessageTail].dlc = CAN_GET_DLC(mailbox);
 371              		.loc 1 127 0
 372 0036 3A4B     		ldr	r3, .L27
 373 0038 9A78     		ldrb	r2, [r3, #2]
 374 003a D2B2     		uxtb	r2, r2
 375 003c 6401     		lsls	r4, r4, #5
 376              	.LVL16:
 377 003e 3B4B     		ldr	r3, .L27+12
 378 0040 9C46     		mov	ip, r3
 379 0042 6444     		add	r4, r4, ip
 380 0044 2368     		ldr	r3, [r4]
 381 0046 DB02     		lsls	r3, r3, #11
 382 0048 02D4     		bmi	.L21
 127:CAN_stuff.c   ****     latestMessage[latestMessageTail].dlc = CAN_GET_DLC(mailbox);
 383              		.loc 1 127 0 is_stmt 0 discriminator 1
 384 004a 6168     		ldr	r1, [r4, #4]
 385 004c 490D     		lsrs	r1, r1, #21
 386 004e 02E0     		b	.L22
 387              	.L21:
 127:CAN_stuff.c   ****     latestMessage[latestMessageTail].dlc = CAN_GET_DLC(mailbox);
 388              		.loc 1 127 0 discriminator 2
 389 0050 6168     		ldr	r1, [r4, #4]
 390 0052 C908     		lsrs	r1, r1, #3
 391 0054 89B2     		uxth	r1, r1
 392              	.L22:
 127:CAN_stuff.c   ****     latestMessage[latestMessageTail].dlc = CAN_GET_DLC(mailbox);
 393              		.loc 1 127 0 discriminator 4
 394 0056 364B     		ldr	r3, .L27+16
 395 0058 5000     		lsls	r0, r2, #1
 396 005a 8218     		adds	r2, r0, r2
 397 005c 9000     		lsls	r0, r2, #2
 398 005e C152     		strh	r1, [r0, r3]
 128:CAN_stuff.c   ****     latestMessage[latestMessageTail].data[0] = CAN_RX_DATA_BYTE1(mailbox);
 399              		.loc 1 128 0 is_stmt 1 discriminator 4
 400 0060 2F4A     		ldr	r2, .L27
 401 0062 9178     		ldrb	r1, [r2, #2]
 402 0064 C9B2     		uxtb	r1, r1
 403 0066 2068     		ldr	r0, [r4]
 404 0068 000C     		lsrs	r0, r0, #16
 405 006a 0F25     		movs	r5, #15
 406 006c 2840     		ands	r0, r5
 407 006e 4D00     		lsls	r5, r1, #1
 408 0070 6918     		adds	r1, r5, r1
 409 0072 8D00     		lsls	r5, r1, #2
 410 0074 5D19     		adds	r5, r3, r5
 411 0076 A870     		strb	r0, [r5, #2]
 129:CAN_stuff.c   ****     latestMessage[latestMessageTail].data[1] = CAN_RX_DATA_BYTE2(mailbox);
 412              		.loc 1 129 0 discriminator 4
 413 0078 9178     		ldrb	r1, [r2, #2]
 414 007a C9B2     		uxtb	r1, r1
 415 007c A568     		ldr	r5, [r4, #8]
 416 007e 2D0E     		lsrs	r5, r5, #24
 417 0080 4800     		lsls	r0, r1, #1
 418 0082 4118     		adds	r1, r0, r1
 419 0084 8800     		lsls	r0, r1, #2
ARM GAS  C:\Users\casey\AppData\Local\Temp\ccObT9am.s 			page 12


 420 0086 1818     		adds	r0, r3, r0
 421 0088 C570     		strb	r5, [r0, #3]
 130:CAN_stuff.c   ****     latestMessage[latestMessageTail].data[2] = CAN_RX_DATA_BYTE3(mailbox);
 422              		.loc 1 130 0 discriminator 4
 423 008a 9178     		ldrb	r1, [r2, #2]
 424 008c C9B2     		uxtb	r1, r1
 425 008e A068     		ldr	r0, [r4, #8]
 426 0090 000C     		lsrs	r0, r0, #16
 427 0092 C0B2     		uxtb	r0, r0
 428 0094 4D00     		lsls	r5, r1, #1
 429 0096 6918     		adds	r1, r5, r1
 430 0098 8D00     		lsls	r5, r1, #2
 431 009a 5D19     		adds	r5, r3, r5
 432 009c 2871     		strb	r0, [r5, #4]
 131:CAN_stuff.c   ****     latestMessage[latestMessageTail].data[3] = CAN_RX_DATA_BYTE4(mailbox);
 433              		.loc 1 131 0 discriminator 4
 434 009e 9178     		ldrb	r1, [r2, #2]
 435 00a0 C9B2     		uxtb	r1, r1
 436 00a2 A068     		ldr	r0, [r4, #8]
 437 00a4 000A     		lsrs	r0, r0, #8
 438 00a6 C0B2     		uxtb	r0, r0
 439 00a8 4D00     		lsls	r5, r1, #1
 440 00aa 6918     		adds	r1, r5, r1
 441 00ac 8D00     		lsls	r5, r1, #2
 442 00ae 5D19     		adds	r5, r3, r5
 443 00b0 6871     		strb	r0, [r5, #5]
 132:CAN_stuff.c   ****     latestMessage[latestMessageTail].data[4] = CAN_RX_DATA_BYTE5(mailbox);
 444              		.loc 1 132 0 discriminator 4
 445 00b2 9178     		ldrb	r1, [r2, #2]
 446 00b4 C9B2     		uxtb	r1, r1
 447 00b6 A568     		ldr	r5, [r4, #8]
 448 00b8 EDB2     		uxtb	r5, r5
 449 00ba 4800     		lsls	r0, r1, #1
 450 00bc 4118     		adds	r1, r0, r1
 451 00be 8800     		lsls	r0, r1, #2
 452 00c0 1818     		adds	r0, r3, r0
 453 00c2 8571     		strb	r5, [r0, #6]
 133:CAN_stuff.c   ****     latestMessage[latestMessageTail].data[5] = CAN_RX_DATA_BYTE6(mailbox);
 454              		.loc 1 133 0 discriminator 4
 455 00c4 9178     		ldrb	r1, [r2, #2]
 456 00c6 C9B2     		uxtb	r1, r1
 457 00c8 E568     		ldr	r5, [r4, #12]
 458 00ca 2D0E     		lsrs	r5, r5, #24
 459 00cc 4800     		lsls	r0, r1, #1
 460 00ce 4118     		adds	r1, r0, r1
 461 00d0 8800     		lsls	r0, r1, #2
 462 00d2 1818     		adds	r0, r3, r0
 463 00d4 C571     		strb	r5, [r0, #7]
 134:CAN_stuff.c   ****     latestMessage[latestMessageTail].data[6] = CAN_RX_DATA_BYTE7(mailbox);
 464              		.loc 1 134 0 discriminator 4
 465 00d6 9178     		ldrb	r1, [r2, #2]
 466 00d8 C9B2     		uxtb	r1, r1
 467 00da E068     		ldr	r0, [r4, #12]
 468 00dc 000C     		lsrs	r0, r0, #16
 469 00de C0B2     		uxtb	r0, r0
 470 00e0 4D00     		lsls	r5, r1, #1
 471 00e2 6918     		adds	r1, r5, r1
ARM GAS  C:\Users\casey\AppData\Local\Temp\ccObT9am.s 			page 13


 472 00e4 8D00     		lsls	r5, r1, #2
 473 00e6 5D19     		adds	r5, r3, r5
 474 00e8 2872     		strb	r0, [r5, #8]
 135:CAN_stuff.c   ****     latestMessage[latestMessageTail].data[7] = CAN_RX_DATA_BYTE8(mailbox);
 475              		.loc 1 135 0 discriminator 4
 476 00ea 9178     		ldrb	r1, [r2, #2]
 477 00ec C9B2     		uxtb	r1, r1
 478 00ee E068     		ldr	r0, [r4, #12]
 479 00f0 000A     		lsrs	r0, r0, #8
 480 00f2 C0B2     		uxtb	r0, r0
 481 00f4 4D00     		lsls	r5, r1, #1
 482 00f6 6918     		adds	r1, r5, r1
 483 00f8 8D00     		lsls	r5, r1, #2
 484 00fa 5D19     		adds	r5, r3, r5
 485 00fc 6872     		strb	r0, [r5, #9]
 136:CAN_stuff.c   ****     countAddFIFO();
 486              		.loc 1 136 0 discriminator 4
 487 00fe 9278     		ldrb	r2, [r2, #2]
 488 0100 D2B2     		uxtb	r2, r2
 489 0102 E068     		ldr	r0, [r4, #12]
 490 0104 C0B2     		uxtb	r0, r0
 491 0106 5100     		lsls	r1, r2, #1
 492 0108 8A18     		adds	r2, r1, r2
 493 010a 9100     		lsls	r1, r2, #2
 494 010c 5B18     		adds	r3, r3, r1
 495 010e 9872     		strb	r0, [r3, #10]
 137:CAN_stuff.c   **** 
 496              		.loc 1 137 0 discriminator 4
 497 0110 FFF7FEFF 		bl	countAddFIFO
 498              	.LVL17:
 140:CAN_stuff.c   **** }
 499              		.loc 1 140 0 discriminator 4
 500 0114 2268     		ldr	r2, [r4]
 501 0116 0123     		movs	r3, #1
 502 0118 1343     		orrs	r3, r2
 503 011a 2360     		str	r3, [r4]
 141:CAN_stuff.c   **** 
 504              		.loc 1 141 0 discriminator 4
 505              		@ sp needed
 506 011c 70BD     		pop	{r4, r5, r6, pc}
 507              	.L28:
 508 011e C046     		.align	2
 509              	.L27:
 510 0120 00000000 		.word	.LANCHOR0
 511 0124 00002E40 		.word	1076756480
 512 0128 08002E40 		.word	1076756488
 513 012c A0002E40 		.word	1076756640
 514 0130 00000000 		.word	latestMessage
 515              		.cfi_endproc
 516              	.LFE36:
 517              		.size	CAN_FLAG_ISR, .-CAN_FLAG_ISR
 518              		.section	.text.countRemoveFIFO,"ax",%progbits
 519              		.align	2
 520              		.global	countRemoveFIFO
 521              		.code	16
 522              		.thumb_func
 523              		.type	countRemoveFIFO, %function
ARM GAS  C:\Users\casey\AppData\Local\Temp\ccObT9am.s 			page 14


 524              	countRemoveFIFO:
 525              	.LFB40:
 189:CAN_stuff.c   **** 
 190:CAN_stuff.c   **** void countRemoveFIFO(){
 526              		.loc 1 190 0
 527              		.cfi_startproc
 528              		@ args = 0, pretend = 0, frame = 0
 529              		@ frame_needed = 0, uses_anonymous_args = 0
 530 0000 10B5     		push	{r4, lr}
 531              		.cfi_def_cfa_offset 8
 532              		.cfi_offset 4, -8
 533              		.cfi_offset 14, -4
 191:CAN_stuff.c   ****     if(FIFOSize() > 0) {
 534              		.loc 1 191 0
 535 0002 FFF7FEFF 		bl	FIFOSize
 536              	.LVL18:
 537 0006 0028     		cmp	r0, #0
 538 0008 0BD0     		beq	.L29
 192:CAN_stuff.c   ****         latestMessageHead++;
 539              		.loc 1 192 0
 540 000a 064A     		ldr	r2, .L31
 541 000c 5378     		ldrb	r3, [r2, #1]
 542 000e 0133     		adds	r3, r3, #1
 543 0010 DBB2     		uxtb	r3, r3
 544 0012 5370     		strb	r3, [r2, #1]
 193:CAN_stuff.c   ****         if(latestMessageHead >= FIFO_SIZE) {
 545              		.loc 1 193 0
 546 0014 5378     		ldrb	r3, [r2, #1]
 547 0016 DBB2     		uxtb	r3, r3
 548 0018 0F2B     		cmp	r3, #15
 549 001a 02D9     		bls	.L29
 194:CAN_stuff.c   ****             latestMessageHead = 0;
 550              		.loc 1 194 0
 551 001c 0022     		movs	r2, #0
 552 001e 014B     		ldr	r3, .L31
 553 0020 5A70     		strb	r2, [r3, #1]
 554              	.L29:
 195:CAN_stuff.c   ****         }
 196:CAN_stuff.c   ****     }
 197:CAN_stuff.c   **** }
 555              		.loc 1 197 0
 556              		@ sp needed
 557 0022 10BD     		pop	{r4, pc}
 558              	.L32:
 559              		.align	2
 560              	.L31:
 561 0024 00000000 		.word	.LANCHOR0
 562              		.cfi_endproc
 563              	.LFE40:
 564              		.size	countRemoveFIFO, .-countRemoveFIFO
 565              		.section	.text.PollAndReceiveCANPacket,"ax",%progbits
 566              		.align	2
 567              		.global	PollAndReceiveCANPacket
 568              		.code	16
 569              		.thumb_func
 570              		.type	PollAndReceiveCANPacket, %function
 571              	PollAndReceiveCANPacket:
ARM GAS  C:\Users\casey\AppData\Local\Temp\ccObT9am.s 			page 15


 572              	.LFB37:
 144:CAN_stuff.c   ****     if(!receivedPacket)
 573              		.loc 1 144 0
 574              		.cfi_startproc
 575              		@ args = 0, pretend = 0, frame = 8
 576              		@ frame_needed = 0, uses_anonymous_args = 0
 577              	.LVL19:
 578 0000 10B5     		push	{r4, lr}
 579              		.cfi_def_cfa_offset 8
 580              		.cfi_offset 4, -8
 581              		.cfi_offset 14, -4
 582 0002 82B0     		sub	sp, sp, #8
 583              		.cfi_def_cfa_offset 16
 584 0004 041E     		subs	r4, r0, #0
 145:CAN_stuff.c   ****         return ERROR_NULL_POINTER;
 585              		.loc 1 145 0
 586 0006 17D0     		beq	.L35
 148:CAN_stuff.c   ****     if(size)
 587              		.loc 1 148 0
 588 0008 FFF7FEFF 		bl	FIFOSize
 589              	.LVL20:
 590 000c 6B46     		mov	r3, sp
 591 000e D871     		strb	r0, [r3, #7]
 592 0010 0733     		adds	r3, r3, #7
 149:CAN_stuff.c   ****     {
 593              		.loc 1 149 0
 594 0012 1B78     		ldrb	r3, [r3]
 595 0014 002B     		cmp	r3, #0
 596 0016 11D0     		beq	.L36
 151:CAN_stuff.c   ****         countRemoveFIFO();
 597              		.loc 1 151 0
 598 0018 0A4B     		ldr	r3, .L37
 599 001a 5B78     		ldrb	r3, [r3, #1]
 600 001c DBB2     		uxtb	r3, r3
 601 001e 5A00     		lsls	r2, r3, #1
 602 0020 D318     		adds	r3, r2, r3
 603 0022 9900     		lsls	r1, r3, #2
 604 0024 084B     		ldr	r3, .L37+4
 605 0026 5918     		adds	r1, r3, r1
 606 0028 0C22     		movs	r2, #12
 607 002a 2000     		movs	r0, r4
 608 002c FFF7FEFF 		bl	memcpy
 609              	.LVL21:
 152:CAN_stuff.c   ****         return ERROR_NONE;
 610              		.loc 1 152 0
 611 0030 FFF7FEFF 		bl	countRemoveFIFO
 612              	.LVL22:
 153:CAN_stuff.c   ****     }
 613              		.loc 1 153 0
 614 0034 0020     		movs	r0, #0
 615 0036 02E0     		b	.L34
 616              	.LVL23:
 617              	.L35:
 146:CAN_stuff.c   ****     
 618              		.loc 1 146 0
 619 0038 0220     		movs	r0, #2
 620              	.LVL24:
ARM GAS  C:\Users\casey\AppData\Local\Temp\ccObT9am.s 			page 16


 621 003a 00E0     		b	.L34
 622              	.L36:
 156:CAN_stuff.c   **** }
 623              		.loc 1 156 0
 624 003c 0220     		movs	r0, #2
 625              	.L34:
 157:CAN_stuff.c   **** 
 626              		.loc 1 157 0
 627 003e 02B0     		add	sp, sp, #8
 628              		@ sp needed
 629              	.LVL25:
 630 0040 10BD     		pop	{r4, pc}
 631              	.L38:
 632 0042 C046     		.align	2
 633              	.L37:
 634 0044 00000000 		.word	.LANCHOR0
 635 0048 00000000 		.word	latestMessage
 636              		.cfi_endproc
 637              	.LFE37:
 638              		.size	PollAndReceiveCANPacket, .-PollAndReceiveCANPacket
 639              		.global	CAN_time_LED
 640              		.global	receiveMailboxNumber
 641              		.comm	messagePWM,16,4
 642              		.comm	packet,12,4
 643              		.global	mailbox
 644              		.comm	rxMailbox,16,4
 645              		.comm	deviceGroup,4,4
 646              		.comm	deviceAddress,4,4
 647              		.global	latestMessageFull
 648              		.global	latestMessageTail
 649              		.global	latestMessageHead
 650              		.comm	latestMessage,192,4
 651              		.global	messageReadFlag
 652              		.global	messagePresentFlag
 653              		.data
 654              		.type	receiveMailboxNumber, %object
 655              		.size	receiveMailboxNumber, 1
 656              	receiveMailboxNumber:
 657 0000 FF       		.byte	-1
 658              		.type	messagePresentFlag, %object
 659              		.size	messagePresentFlag, 1
 660              	messagePresentFlag:
 661 0001 FF       		.byte	-1
 662              		.bss
 663              		.align	2
 664              		.set	.LANCHOR0,. + 0
 665              		.type	latestMessageFull, %object
 666              		.size	latestMessageFull, 1
 667              	latestMessageFull:
 668 0000 00       		.space	1
 669              		.type	latestMessageHead, %object
 670              		.size	latestMessageHead, 1
 671              	latestMessageHead:
 672 0001 00       		.space	1
 673              		.type	latestMessageTail, %object
 674              		.size	latestMessageTail, 1
 675              	latestMessageTail:
ARM GAS  C:\Users\casey\AppData\Local\Temp\ccObT9am.s 			page 17


 676 0002 00       		.space	1
 677 0003 00       		.space	1
 678              		.type	CAN_time_LED, %object
 679              		.size	CAN_time_LED, 2
 680              	CAN_time_LED:
 681 0004 0000     		.space	2
 682 0006 0000     		.space	2
 683              		.type	mailbox, %object
 684              		.size	mailbox, 4
 685              	mailbox:
 686 0008 00000000 		.space	4
 687              		.type	messageReadFlag, %object
 688              		.size	messageReadFlag, 1
 689              	messageReadFlag:
 690 000c 00       		.space	1
 691              		.text
 692              	.Letext0:
 693              		.file 2 "c:\\program files (x86)\\cypress\\psoc creator\\4.4\\psoc creator\\import\\gnu\\arm\\5.4.
 694              		.file 3 "c:\\program files (x86)\\cypress\\psoc creator\\4.4\\psoc creator\\import\\gnu\\arm\\5.4.
 695              		.file 4 "Generated_Source\\PSoC4/cytypes.h"
 696              		.file 5 "Generated_Source\\PSoC4/CAN.h"
 697              		.file 6 "Generated_Source\\PSoC4/CyLib.h"