ARM GAS  C:\Users\casey\AppData\Local\Temp\cc41co3d.s 			page 1


   1              		.syntax unified
   2              		.cpu cortex-m0
   3              		.fpu softvfp
   4              		.eabi_attribute 20, 1
   5              		.eabi_attribute 21, 1
   6              		.eabi_attribute 23, 3
   7              		.eabi_attribute 24, 1
   8              		.eabi_attribute 25, 1
   9              		.eabi_attribute 26, 1
  10              		.eabi_attribute 30, 1
  11              		.eabi_attribute 34, 0
  12              		.eabi_attribute 18, 4
  13              		.thumb
  14              		.syntax unified
  15              		.file	"UART_Interface.c"
  16              		.text
  17              	.Ltext0:
  18              		.cfi_sections	.debug_frame
  19              		.section	.text.SendCANPacket,"ax",%progbits
  20              		.align	2
  21              		.global	SendCANPacket
  22              		.code	16
  23              		.thumb_func
  24              		.type	SendCANPacket, %function
  25              	SendCANPacket:
  26              	.LFB34:
  27              		.file 1 "CAN_Stuff.c"
   1:CAN_Stuff.c   **** /* ========================================
   2:CAN_Stuff.c   ****  *
   3:CAN_Stuff.c   ****  * Copyright YOUR COMPANY, THE YEAR
   4:CAN_Stuff.c   ****  * All Rights Reserved
   5:CAN_Stuff.c   ****  * UNPUBLISHED, LICENSED SOFTWARE.
   6:CAN_Stuff.c   ****  *
   7:CAN_Stuff.c   ****  * CONFIDENTIAL AND PROPRIETARY INFORMATION
   8:CAN_Stuff.c   ****  * WHICH IS THE PROPERTY OF your company.
   9:CAN_Stuff.c   ****  *
  10:CAN_Stuff.c   ****  * ========================================
  11:CAN_Stuff.c   **** */
  12:CAN_Stuff.c   **** 
  13:CAN_Stuff.c   **** #include "CAN_Stuff.h"
  14:CAN_Stuff.c   **** 
  15:CAN_Stuff.c   **** typedef struct
  16:CAN_Stuff.c   **** {
  17:CAN_Stuff.c   ****     uint16_t id;
  18:CAN_Stuff.c   ****     uint8_t dlc;
  19:CAN_Stuff.c   ****     uint8_t data[8];
  20:CAN_Stuff.c   **** } CANPacket;
  21:CAN_Stuff.c   **** 
  22:CAN_Stuff.c   **** volatile uint8_t messagePresentFlag = 0xFF;
  23:CAN_Stuff.c   **** volatile uint8_t messageReadFlag = 0x0;
  24:CAN_Stuff.c   **** uint8_t FIFOSize(void);
  25:CAN_Stuff.c   **** void countAddFIFO(void);
  26:CAN_Stuff.c   **** void countRemoveFIFO(void);
  27:CAN_Stuff.c   **** 
  28:CAN_Stuff.c   **** #define FIFO_SIZE   16
  29:CAN_Stuff.c   **** volatile CANPacket latestMessage[FIFO_SIZE];//internal to this port acts like a FIFO with 10 packet
  30:CAN_Stuff.c   **** volatile uint8_t latestMessageHead = 0; //which index to read
ARM GAS  C:\Users\casey\AppData\Local\Temp\cc41co3d.s 			page 2


  31:CAN_Stuff.c   **** volatile uint8_t latestMessageTail = 0; //which index to write to next
  32:CAN_Stuff.c   **** volatile uint8_t latestMessageFull = 0; //FIFO is full
  33:CAN_Stuff.c   **** 
  34:CAN_Stuff.c   **** CY_ISR_PROTO(CAN_FLAG_ISR);
  35:CAN_Stuff.c   **** 
  36:CAN_Stuff.c   **** int deviceAddress;
  37:CAN_Stuff.c   **** int deviceGroup;
  38:CAN_Stuff.c   **** CAN_RX_CFG rxMailbox;
  39:CAN_Stuff.c   **** 
  40:CAN_Stuff.c   **** int mailbox = 0;
  41:CAN_Stuff.c   **** 
  42:CAN_Stuff.c   **** volatile CANPacket packet;
  43:CAN_Stuff.c   **** 
  44:CAN_Stuff.c   **** CY_ISR_PROTO(ISR_CAN);
  45:CAN_Stuff.c   **** 
  46:CAN_Stuff.c   **** CAN_TX_MSG messagePWM;
  47:CAN_Stuff.c   **** volatile uint8 receiveMailboxNumber = 0xFFu;
  48:CAN_Stuff.c   **** 
  49:CAN_Stuff.c   **** volatile uint16 CAN_time_LED = 0;
  50:CAN_Stuff.c   **** 
  51:CAN_Stuff.c   **** int SendCANPacket(CANPacket *packetToSend)
  52:CAN_Stuff.c   **** {
  28              		.loc 1 52 0
  29              		.cfi_startproc
  30              		@ args = 0, pretend = 0, frame = 24
  31              		@ frame_needed = 0, uses_anonymous_args = 0
  32              	.LVL0:
  33 0000 10B5     		push	{r4, lr}
  34              		.cfi_def_cfa_offset 8
  35              		.cfi_offset 4, -8
  36              		.cfi_offset 14, -4
  37 0002 86B0     		sub	sp, sp, #24
  38              		.cfi_def_cfa_offset 32
  53:CAN_Stuff.c   ****     if(!packetToSend) {return ERROR_NULL_POINTER;}
  39              		.loc 1 53 0
  40 0004 0028     		cmp	r0, #0
  41 0006 15D0     		beq	.L3
  54:CAN_Stuff.c   ****     CAN_TX_MSG PSoCMessage;//CAN structure
  55:CAN_Stuff.c   ****     CAN_DATA_BYTES_MSG PSoCData;//CAN data
  56:CAN_Stuff.c   ****     PSoCMessage.id = packetToSend->id;
  42              		.loc 1 56 0
  43 0008 0388     		ldrh	r3, [r0]
  44 000a 02AC     		add	r4, sp, #8
  45 000c 0293     		str	r3, [sp, #8]
  57:CAN_Stuff.c   ****     PSoCMessage.rtr = 0x0;
  46              		.loc 1 57 0
  47 000e 0023     		movs	r3, #0
  48 0010 2371     		strb	r3, [r4, #4]
  58:CAN_Stuff.c   ****     PSoCMessage.ide = 0x0;//Not extended
  49              		.loc 1 58 0
  50 0012 6371     		strb	r3, [r4, #5]
  59:CAN_Stuff.c   ****     PSoCMessage.dlc = packetToSend->dlc;
  51              		.loc 1 59 0
  52 0014 8278     		ldrb	r2, [r0, #2]
  53 0016 A271     		strb	r2, [r4, #6]
  60:CAN_Stuff.c   ****     PSoCMessage.irq = 0x0;
  54              		.loc 1 60 0
ARM GAS  C:\Users\casey\AppData\Local\Temp\cc41co3d.s 			page 3


  55 0018 E371     		strb	r3, [r4, #7]
  61:CAN_Stuff.c   ****     PSoCMessage.msg = &PSoCData;
  56              		.loc 1 61 0
  57 001a 6B46     		mov	r3, sp
  58 001c 0593     		str	r3, [sp, #20]
  62:CAN_Stuff.c   ****     
  63:CAN_Stuff.c   ****     memcpy(PSoCData.byte, packetToSend->data, 8);
  59              		.loc 1 63 0
  60 001e C11C     		adds	r1, r0, #3
  61 0020 0822     		movs	r2, #8
  62 0022 6846     		mov	r0, sp
  63              	.LVL1:
  64 0024 FFF7FEFF 		bl	memcpy
  65              	.LVL2:
  64:CAN_Stuff.c   **** 
  65:CAN_Stuff.c   ****     if(CAN_SendMsg(&PSoCMessage) == CYRET_SUCCESS) {
  66              		.loc 1 65 0
  67 0028 2000     		movs	r0, r4
  68 002a FFF7FEFF 		bl	CAN_SendMsg
  69              	.LVL3:
  70 002e 0028     		cmp	r0, #0
  71 0030 02D1     		bne	.L4
  72 0032 02E0     		b	.L2
  73              	.LVL4:
  74              	.L3:
  53:CAN_Stuff.c   ****     CAN_TX_MSG PSoCMessage;//CAN structure
  75              		.loc 1 53 0
  76 0034 0220     		movs	r0, #2
  77              	.LVL5:
  78 0036 00E0     		b	.L2
  79              	.L4:
  66:CAN_Stuff.c   ****         return ERROR_NONE;
  67:CAN_Stuff.c   ****     } else
  68:CAN_Stuff.c   ****     {
  69:CAN_Stuff.c   ****         return ERROR_GENERIC_ERROR;
  80              		.loc 1 69 0
  81 0038 0120     		movs	r0, #1
  82              	.L2:
  70:CAN_Stuff.c   ****     }
  71:CAN_Stuff.c   **** }
  83              		.loc 1 71 0
  84 003a 06B0     		add	sp, sp, #24
  85              		@ sp needed
  86 003c 10BD     		pop	{r4, pc}
  87              		.cfi_endproc
  88              	.LFE34:
  89              		.size	SendCANPacket, .-SendCANPacket
  90 003e C046     		.section	.text.InitCAN,"ax",%progbits
  91              		.align	2
  92              		.global	InitCAN
  93              		.code	16
  94              		.thumb_func
  95              		.type	InitCAN, %function
  96              	InitCAN:
  97              	.LFB35:
  72:CAN_Stuff.c   **** 
  73:CAN_Stuff.c   **** void InitCAN() {
ARM GAS  C:\Users\casey\AppData\Local\Temp\cc41co3d.s 			page 4


  98              		.loc 1 73 0
  99              		.cfi_startproc
 100              		@ args = 0, pretend = 0, frame = 0
 101              		@ frame_needed = 0, uses_anonymous_args = 0
 102 0000 70B5     		push	{r4, r5, r6, lr}
 103              		.cfi_def_cfa_offset 16
 104              		.cfi_offset 4, -16
 105              		.cfi_offset 5, -12
 106              		.cfi_offset 6, -8
 107              		.cfi_offset 14, -4
  74:CAN_Stuff.c   ****     
  75:CAN_Stuff.c   ****     CAN_Start();//must name CAN Top Design block as "CAN"
 108              		.loc 1 75 0
 109 0002 FFF7FEFF 		bl	CAN_Start
 110              	.LVL6:
  76:CAN_Stuff.c   ****     
  77:CAN_Stuff.c   ****     //TODO: I'm sure there's a better way of doing this part
  78:CAN_Stuff.c   ****     // deviceGroup = deviceGroupInput & 0xF; // 4bits of ID
  79:CAN_Stuff.c   ****     // deviceAddress = deviceAddressInput & (0x3f);//6bits of ID
  80:CAN_Stuff.c   ****     
  81:CAN_Stuff.c   ****     //sets up inidvidual recieve mailbox (3rd priority mailbox)
  82:CAN_Stuff.c   ****     rxMailbox.rxmailbox = 0;
 111              		.loc 1 82 0
 112 0006 114C     		ldr	r4, .L6
 113 0008 0026     		movs	r6, #0
 114 000a 2670     		strb	r6, [r4]
  83:CAN_Stuff.c   ****     // rxMailbox.rxacr = ((deviceGroup << 6)|(deviceAddress)) << 21;  // first 11 bits are the CAN 
  84:CAN_Stuff.c   ****     rxMailbox.rxamr = 0x801FFFFF; // what bits to ignore
 115              		.loc 1 84 0
 116 000c 104D     		ldr	r5, .L6+4
 117 000e A560     		str	r5, [r4, #8]
  85:CAN_Stuff.c   ****     rxMailbox.rxcmd = CAN_RX_CMD_REG(CAN_RX_MAILBOX_0);//need to know what this is
 118              		.loc 1 85 0
 119 0010 104B     		ldr	r3, .L6+8
 120 0012 1B68     		ldr	r3, [r3]
 121 0014 6360     		str	r3, [r4, #4]
  86:CAN_Stuff.c   ****     CAN_RxBufConfig(&rxMailbox);
 122              		.loc 1 86 0
 123 0016 2000     		movs	r0, r4
 124 0018 FFF7FEFF 		bl	CAN_RxBufConfig
 125              	.LVL7:
  87:CAN_Stuff.c   ****     
  88:CAN_Stuff.c   ****     //setup broadcast recieve mailbox (1st priority mailbox)
  89:CAN_Stuff.c   ****     rxMailbox.rxmailbox = 1;
 126              		.loc 1 89 0
 127 001c 0123     		movs	r3, #1
 128 001e 2370     		strb	r3, [r4]
  90:CAN_Stuff.c   ****     rxMailbox.rxacr = ((0x0 << 6)|(0x0)) << 21; //0x20F<<21; // first 11 bits are the CAN ID that i
 129              		.loc 1 90 0
 130 0020 E660     		str	r6, [r4, #12]
  91:CAN_Stuff.c   ****     rxMailbox.rxamr = 0x801FFFFF; // what bits to ignore
 131              		.loc 1 91 0
 132 0022 A560     		str	r5, [r4, #8]
  92:CAN_Stuff.c   ****     rxMailbox.rxcmd = CAN_RX_CMD_REG(CAN_RX_MAILBOX_1);//need to know what this is
 133              		.loc 1 92 0
 134 0024 0C4B     		ldr	r3, .L6+12
 135 0026 1B68     		ldr	r3, [r3]
ARM GAS  C:\Users\casey\AppData\Local\Temp\cc41co3d.s 			page 5


 136 0028 6360     		str	r3, [r4, #4]
  93:CAN_Stuff.c   ****     CAN_RxBufConfig(&rxMailbox);
 137              		.loc 1 93 0
 138 002a 2000     		movs	r0, r4
 139 002c FFF7FEFF 		bl	CAN_RxBufConfig
 140              	.LVL8:
  94:CAN_Stuff.c   ****     
  95:CAN_Stuff.c   ****     //setup group broadcast recieve mailbox (2nd priority mailbox)
  96:CAN_Stuff.c   ****     rxMailbox.rxmailbox = 2;
 141              		.loc 1 96 0
 142 0030 0223     		movs	r3, #2
 143 0032 2370     		strb	r3, [r4]
  97:CAN_Stuff.c   ****     // rxMailbox.rxacr = ((deviceGroup << 6)|(0x3F)) << 21; //0x20F<<21; // first 11 bits are the C
  98:CAN_Stuff.c   ****     rxMailbox.rxamr = 0x801FFFFF; // what bits to ignore
 144              		.loc 1 98 0
 145 0034 A560     		str	r5, [r4, #8]
  99:CAN_Stuff.c   ****     rxMailbox.rxcmd = CAN_RX_CMD_REG(CAN_RX_MAILBOX_2);//need to know what this is
 146              		.loc 1 99 0
 147 0036 094B     		ldr	r3, .L6+16
 148 0038 1B68     		ldr	r3, [r3]
 149 003a 6360     		str	r3, [r4, #4]
 100:CAN_Stuff.c   ****     //CAN_RxBufConfig(&rxMailbox);
 101:CAN_Stuff.c   ****     
 102:CAN_Stuff.c   ****     CAN_GlobalIntEnable();
 150              		.loc 1 102 0
 151 003c FFF7FEFF 		bl	CAN_GlobalIntEnable
 152              	.LVL9:
 103:CAN_Stuff.c   ****     CyIntSetVector(CAN_ISR_NUMBER, CAN_FLAG_ISR);
 153              		.loc 1 103 0
 154 0040 0749     		ldr	r1, .L6+20
 155 0042 1C20     		movs	r0, #28
 156 0044 FFF7FEFF 		bl	CyIntSetVector
 157              	.LVL10:
 104:CAN_Stuff.c   **** }
 158              		.loc 1 104 0
 159              		@ sp needed
 160 0048 70BD     		pop	{r4, r5, r6, pc}
 161              	.L7:
 162 004a C046     		.align	2
 163              	.L6:
 164 004c 00000000 		.word	rxMailbox
 165 0050 FFFF1F80 		.word	-2145386497
 166 0054 A0002E40 		.word	1076756640
 167 0058 C0002E40 		.word	1076756672
 168 005c E0002E40 		.word	1076756704
 169 0060 00000000 		.word	CAN_FLAG_ISR
 170              		.cfi_endproc
 171              	.LFE35:
 172              		.size	InitCAN, .-InitCAN
 173              		.section	.text.FIFOSize,"ax",%progbits
 174              		.align	2
 175              		.global	FIFOSize
 176              		.code	16
 177              		.thumb_func
 178              		.type	FIFOSize, %function
 179              	FIFOSize:
 180              	.LFB38:
ARM GAS  C:\Users\casey\AppData\Local\Temp\cc41co3d.s 			page 6


 105:CAN_Stuff.c   **** 
 106:CAN_Stuff.c   **** CY_ISR(CAN_FLAG_ISR)
 107:CAN_Stuff.c   **** {
 108:CAN_Stuff.c   ****     CAN_time_LED = 1000;
 109:CAN_Stuff.c   ****     //*(reg32*)0x402F0000 = CAN_RX_MESSAGE_MASK & CAN_SST_FAILURE_MASK & CAN_CRC_ERROR_MASK; //Clea
 110:CAN_Stuff.c   ****     CAN_INT_SR_REG = CAN_RX_MESSAGE_MASK;
 111:CAN_Stuff.c   ****     uint32_t statusReg = (uint32_t) CAN_BUF_SR_REG; //Hardcoded for speed, translation from reg
 112:CAN_Stuff.c   ****     uint8_t mailbox;
 113:CAN_Stuff.c   ****     
 114:CAN_Stuff.c   ****     if(statusReg & 0b1) { // mailbox0 is full (individual)
 115:CAN_Stuff.c   ****         mailbox = CAN_RX_MAILBOX_0;
 116:CAN_Stuff.c   ****     }
 117:CAN_Stuff.c   ****     else if(statusReg & 0b10) { // mailbox1 is full (broadcast)
 118:CAN_Stuff.c   ****         mailbox = CAN_RX_MAILBOX_1;
 119:CAN_Stuff.c   ****     }    
 120:CAN_Stuff.c   ****     else if(statusReg & 0b100) { // mailbox2 is full (group broadcast)
 121:CAN_Stuff.c   ****         mailbox = CAN_RX_MAILBOX_2;
 122:CAN_Stuff.c   ****     } 
 123:CAN_Stuff.c   ****     else if(statusReg & 0b1000) { // mailbox3 is full currently recieves anything enable in top des
 124:CAN_Stuff.c   ****         mailbox = CAN_RX_MAILBOX_3;
 125:CAN_Stuff.c   ****     }
 126:CAN_Stuff.c   ****     
 127:CAN_Stuff.c   ****     latestMessage[latestMessageTail].id = CAN_GET_RX_ID(mailbox);
 128:CAN_Stuff.c   ****     latestMessage[latestMessageTail].dlc = CAN_GET_DLC(mailbox);
 129:CAN_Stuff.c   ****     latestMessage[latestMessageTail].data[0] = CAN_RX_DATA_BYTE1(mailbox);
 130:CAN_Stuff.c   ****     latestMessage[latestMessageTail].data[1] = CAN_RX_DATA_BYTE2(mailbox);
 131:CAN_Stuff.c   ****     latestMessage[latestMessageTail].data[2] = CAN_RX_DATA_BYTE3(mailbox);
 132:CAN_Stuff.c   ****     latestMessage[latestMessageTail].data[3] = CAN_RX_DATA_BYTE4(mailbox);
 133:CAN_Stuff.c   ****     latestMessage[latestMessageTail].data[4] = CAN_RX_DATA_BYTE5(mailbox);
 134:CAN_Stuff.c   ****     latestMessage[latestMessageTail].data[5] = CAN_RX_DATA_BYTE6(mailbox);
 135:CAN_Stuff.c   ****     latestMessage[latestMessageTail].data[6] = CAN_RX_DATA_BYTE7(mailbox);
 136:CAN_Stuff.c   ****     latestMessage[latestMessageTail].data[7] = CAN_RX_DATA_BYTE8(mailbox);
 137:CAN_Stuff.c   ****     countAddFIFO();
 138:CAN_Stuff.c   **** 
 139:CAN_Stuff.c   ****     //CAN_ReceiveMsg(messagePresentFlag);
 140:CAN_Stuff.c   ****     CAN_RX_ACK_MESSAGE(mailbox);
 141:CAN_Stuff.c   **** }
 142:CAN_Stuff.c   **** 
 143:CAN_Stuff.c   **** int PollAndReceiveCANPacket(CANPacket *receivedPacket)
 144:CAN_Stuff.c   **** {
 145:CAN_Stuff.c   ****     if(!receivedPacket)
 146:CAN_Stuff.c   ****         return ERROR_NULL_POINTER;
 147:CAN_Stuff.c   ****     
 148:CAN_Stuff.c   ****     volatile uint8_t size = FIFOSize();
 149:CAN_Stuff.c   ****     if(size)
 150:CAN_Stuff.c   ****     {
 151:CAN_Stuff.c   ****         *(receivedPacket) = latestMessage[latestMessageHead];
 152:CAN_Stuff.c   ****         countRemoveFIFO();
 153:CAN_Stuff.c   ****         return ERROR_NONE;
 154:CAN_Stuff.c   ****     }
 155:CAN_Stuff.c   ****     
 156:CAN_Stuff.c   ****     return 0x02; //No message received error
 157:CAN_Stuff.c   **** }
 158:CAN_Stuff.c   **** 
 159:CAN_Stuff.c   **** 
 160:CAN_Stuff.c   **** //helper function calculate size of Fifo
 161:CAN_Stuff.c   **** uint8_t FIFOSize(){
ARM GAS  C:\Users\casey\AppData\Local\Temp\cc41co3d.s 			page 7


 181              		.loc 1 161 0
 182              		.cfi_startproc
 183              		@ args = 0, pretend = 0, frame = 0
 184              		@ frame_needed = 0, uses_anonymous_args = 0
 185              		@ link register save eliminated.
 162:CAN_Stuff.c   ****     if(latestMessageFull) {
 186              		.loc 1 162 0
 187 0000 104B     		ldr	r3, .L12
 188 0002 1878     		ldrb	r0, [r3]
 189 0004 C0B2     		uxtb	r0, r0
 190 0006 0028     		cmp	r0, #0
 191 0008 19D1     		bne	.L11
 163:CAN_Stuff.c   ****         return FIFO_SIZE;
 164:CAN_Stuff.c   ****     }
 165:CAN_Stuff.c   ****     else if(latestMessageHead < latestMessageTail) {
 192              		.loc 1 165 0
 193 000a 5A78     		ldrb	r2, [r3, #1]
 194 000c D2B2     		uxtb	r2, r2
 195 000e 9B78     		ldrb	r3, [r3, #2]
 196 0010 DBB2     		uxtb	r3, r3
 197 0012 9A42     		cmp	r2, r3
 198 0014 05D2     		bcs	.L10
 166:CAN_Stuff.c   ****         return latestMessageTail - latestMessageHead;
 199              		.loc 1 166 0
 200 0016 0B4A     		ldr	r2, .L12
 201 0018 9378     		ldrb	r3, [r2, #2]
 202 001a 5078     		ldrb	r0, [r2, #1]
 203 001c 181A     		subs	r0, r3, r0
 204 001e C0B2     		uxtb	r0, r0
 205 0020 0EE0     		b	.L9
 206              	.L10:
 167:CAN_Stuff.c   ****     }
 168:CAN_Stuff.c   ****     else if(latestMessageHead > latestMessageTail) {
 207              		.loc 1 168 0
 208 0022 084B     		ldr	r3, .L12
 209 0024 5A78     		ldrb	r2, [r3, #1]
 210 0026 D2B2     		uxtb	r2, r2
 211 0028 9B78     		ldrb	r3, [r3, #2]
 212 002a DBB2     		uxtb	r3, r3
 213 002c 9A42     		cmp	r2, r3
 214 002e 07D9     		bls	.L9
 169:CAN_Stuff.c   ****         return (FIFO_SIZE - latestMessageHead) + latestMessageTail;
 215              		.loc 1 169 0
 216 0030 044A     		ldr	r2, .L12
 217 0032 9378     		ldrb	r3, [r2, #2]
 218 0034 5078     		ldrb	r0, [r2, #1]
 219 0036 181A     		subs	r0, r3, r0
 220 0038 1030     		adds	r0, r0, #16
 221 003a C0B2     		uxtb	r0, r0
 222 003c 00E0     		b	.L9
 223              	.L11:
 163:CAN_Stuff.c   ****     }
 224              		.loc 1 163 0
 225 003e 1020     		movs	r0, #16
 226              	.L9:
 170:CAN_Stuff.c   ****     }
 171:CAN_Stuff.c   ****     else { // latestMessageHead == latestMessageTail && !latestMessageFull
ARM GAS  C:\Users\casey\AppData\Local\Temp\cc41co3d.s 			page 8


 172:CAN_Stuff.c   ****         return 0;
 173:CAN_Stuff.c   ****     }
 174:CAN_Stuff.c   **** }
 227              		.loc 1 174 0
 228              		@ sp needed
 229 0040 7047     		bx	lr
 230              	.L13:
 231 0042 C046     		.align	2
 232              	.L12:
 233 0044 00000000 		.word	.LANCHOR0
 234              		.cfi_endproc
 235              	.LFE38:
 236              		.size	FIFOSize, .-FIFOSize
 237              		.section	.text.countAddFIFO,"ax",%progbits
 238              		.align	2
 239              		.global	countAddFIFO
 240              		.code	16
 241              		.thumb_func
 242              		.type	countAddFIFO, %function
 243              	countAddFIFO:
 244              	.LFB39:
 175:CAN_Stuff.c   **** 
 176:CAN_Stuff.c   **** void countAddFIFO(){ 
 245              		.loc 1 176 0
 246              		.cfi_startproc
 247              		@ args = 0, pretend = 0, frame = 0
 248              		@ frame_needed = 0, uses_anonymous_args = 0
 249              		@ link register save eliminated.
 177:CAN_Stuff.c   ****     latestMessageTail++;
 250              		.loc 1 177 0
 251 0000 124A     		ldr	r2, .L17
 252 0002 9378     		ldrb	r3, [r2, #2]
 253 0004 0133     		adds	r3, r3, #1
 254 0006 DBB2     		uxtb	r3, r3
 255 0008 9370     		strb	r3, [r2, #2]
 178:CAN_Stuff.c   ****     if(latestMessageTail >= FIFO_SIZE){
 256              		.loc 1 178 0
 257 000a 9378     		ldrb	r3, [r2, #2]
 258 000c DBB2     		uxtb	r3, r3
 259 000e 0F2B     		cmp	r3, #15
 260 0010 02D9     		bls	.L15
 179:CAN_Stuff.c   ****         latestMessageTail = 0;
 261              		.loc 1 179 0
 262 0012 0022     		movs	r2, #0
 263 0014 0D4B     		ldr	r3, .L17
 264 0016 9A70     		strb	r2, [r3, #2]
 265              	.L15:
 180:CAN_Stuff.c   ****     }
 181:CAN_Stuff.c   ****     if(latestMessageFull) {
 266              		.loc 1 181 0
 267 0018 0C4B     		ldr	r3, .L17
 268 001a 1B78     		ldrb	r3, [r3]
 269 001c 002B     		cmp	r3, #0
 270 001e 0BD0     		beq	.L16
 182:CAN_Stuff.c   ****         latestMessageHead++;
 271              		.loc 1 182 0
 272 0020 0A4A     		ldr	r2, .L17
ARM GAS  C:\Users\casey\AppData\Local\Temp\cc41co3d.s 			page 9


 273 0022 5378     		ldrb	r3, [r2, #1]
 274 0024 0133     		adds	r3, r3, #1
 275 0026 DBB2     		uxtb	r3, r3
 276 0028 5370     		strb	r3, [r2, #1]
 183:CAN_Stuff.c   ****         if(latestMessageHead >= FIFO_SIZE) {
 277              		.loc 1 183 0
 278 002a 5378     		ldrb	r3, [r2, #1]
 279 002c DBB2     		uxtb	r3, r3
 280 002e 0F2B     		cmp	r3, #15
 281 0030 02D9     		bls	.L16
 184:CAN_Stuff.c   ****             latestMessageHead = 0;
 282              		.loc 1 184 0
 283 0032 0022     		movs	r2, #0
 284 0034 054B     		ldr	r3, .L17
 285 0036 5A70     		strb	r2, [r3, #1]
 286              	.L16:
 185:CAN_Stuff.c   ****         }
 186:CAN_Stuff.c   ****     }
 187:CAN_Stuff.c   ****     latestMessageFull = (latestMessageHead == latestMessageTail);
 287              		.loc 1 187 0
 288 0038 044A     		ldr	r2, .L17
 289 003a 5378     		ldrb	r3, [r2, #1]
 290 003c 9178     		ldrb	r1, [r2, #2]
 291 003e 5B1A     		subs	r3, r3, r1
 292 0040 5942     		rsbs	r1, r3, #0
 293 0042 4B41     		adcs	r3, r3, r1
 294 0044 DBB2     		uxtb	r3, r3
 295 0046 1370     		strb	r3, [r2]
 188:CAN_Stuff.c   **** }
 296              		.loc 1 188 0
 297              		@ sp needed
 298 0048 7047     		bx	lr
 299              	.L18:
 300 004a C046     		.align	2
 301              	.L17:
 302 004c 00000000 		.word	.LANCHOR0
 303              		.cfi_endproc
 304              	.LFE39:
 305              		.size	countAddFIFO, .-countAddFIFO
 306              		.section	.text.CAN_FLAG_ISR,"ax",%progbits
 307              		.align	2
 308              		.global	CAN_FLAG_ISR
 309              		.code	16
 310              		.thumb_func
 311              		.type	CAN_FLAG_ISR, %function
 312              	CAN_FLAG_ISR:
 313              	.LFB36:
 107:CAN_Stuff.c   ****     CAN_time_LED = 1000;
 314              		.loc 1 107 0
 315              		.cfi_startproc
 316              		@ args = 0, pretend = 0, frame = 0
 317              		@ frame_needed = 0, uses_anonymous_args = 0
 318 0000 70B5     		push	{r4, r5, r6, lr}
 319              		.cfi_def_cfa_offset 16
 320              		.cfi_offset 4, -16
 321              		.cfi_offset 5, -12
 322              		.cfi_offset 6, -8
ARM GAS  C:\Users\casey\AppData\Local\Temp\cc41co3d.s 			page 10


 323              		.cfi_offset 14, -4
 108:CAN_Stuff.c   ****     //*(reg32*)0x402F0000 = CAN_RX_MESSAGE_MASK & CAN_SST_FAILURE_MASK & CAN_CRC_ERROR_MASK; //Clea
 324              		.loc 1 108 0
 325 0002 FA22     		movs	r2, #250
 326 0004 9200     		lsls	r2, r2, #2
 327 0006 464B     		ldr	r3, .L27
 328 0008 9A80     		strh	r2, [r3, #4]
 110:CAN_Stuff.c   ****     uint32_t statusReg = (uint32_t) CAN_BUF_SR_REG; //Hardcoded for speed, translation from reg
 329              		.loc 1 110 0
 330 000a 8022     		movs	r2, #128
 331 000c 5201     		lsls	r2, r2, #5
 332 000e 454B     		ldr	r3, .L27+4
 333 0010 1A60     		str	r2, [r3]
 111:CAN_Stuff.c   ****     uint8_t mailbox;
 334              		.loc 1 111 0
 335 0012 454B     		ldr	r3, .L27+8
 336 0014 1B68     		ldr	r3, [r3]
 337              	.LVL11:
 114:CAN_Stuff.c   ****         mailbox = CAN_RX_MAILBOX_0;
 338              		.loc 1 114 0
 339 0016 DA07     		lsls	r2, r3, #31
 340 0018 06D4     		bmi	.L23
 117:CAN_Stuff.c   ****         mailbox = CAN_RX_MAILBOX_1;
 341              		.loc 1 117 0
 342 001a 9A07     		lsls	r2, r3, #30
 343 001c 06D4     		bmi	.L24
 120:CAN_Stuff.c   ****         mailbox = CAN_RX_MAILBOX_2;
 344              		.loc 1 120 0
 345 001e 5A07     		lsls	r2, r3, #29
 346 0020 06D4     		bmi	.L25
 123:CAN_Stuff.c   ****         mailbox = CAN_RX_MAILBOX_3;
 347              		.loc 1 123 0
 348 0022 1B07     		lsls	r3, r3, #28
 349 0024 06D4     		bmi	.L26
 350              	.LVL12:
 351 0026 06E0     		b	.L20
 352              	.LVL13:
 353              	.L23:
 115:CAN_Stuff.c   ****     }
 354              		.loc 1 115 0
 355 0028 0024     		movs	r4, #0
 356 002a 04E0     		b	.L20
 357              	.L24:
 118:CAN_Stuff.c   ****     }    
 358              		.loc 1 118 0
 359 002c 0124     		movs	r4, #1
 360 002e 02E0     		b	.L20
 361              	.L25:
 121:CAN_Stuff.c   ****     } 
 362              		.loc 1 121 0
 363 0030 0224     		movs	r4, #2
 364 0032 00E0     		b	.L20
 365              	.LVL14:
 366              	.L26:
 124:CAN_Stuff.c   ****     }
 367              		.loc 1 124 0
 368 0034 0324     		movs	r4, #3
ARM GAS  C:\Users\casey\AppData\Local\Temp\cc41co3d.s 			page 11


 369              	.L20:
 370              	.LVL15:
 127:CAN_Stuff.c   ****     latestMessage[latestMessageTail].dlc = CAN_GET_DLC(mailbox);
 371              		.loc 1 127 0
 372 0036 3A4B     		ldr	r3, .L27
 373 0038 9A78     		ldrb	r2, [r3, #2]
 374 003a D2B2     		uxtb	r2, r2
 375 003c 6401     		lsls	r4, r4, #5
 376              	.LVL16:
 377 003e 3B4B     		ldr	r3, .L27+12
 378 0040 9C46     		mov	ip, r3
 379 0042 6444     		add	r4, r4, ip
 380 0044 2368     		ldr	r3, [r4]
 381 0046 DB02     		lsls	r3, r3, #11
 382 0048 02D4     		bmi	.L21
 127:CAN_Stuff.c   ****     latestMessage[latestMessageTail].dlc = CAN_GET_DLC(mailbox);
 383              		.loc 1 127 0 is_stmt 0 discriminator 1
 384 004a 6168     		ldr	r1, [r4, #4]
 385 004c 490D     		lsrs	r1, r1, #21
 386 004e 02E0     		b	.L22
 387              	.L21:
 127:CAN_Stuff.c   ****     latestMessage[latestMessageTail].dlc = CAN_GET_DLC(mailbox);
 388              		.loc 1 127 0 discriminator 2
 389 0050 6168     		ldr	r1, [r4, #4]
 390 0052 C908     		lsrs	r1, r1, #3
 391 0054 89B2     		uxth	r1, r1
 392              	.L22:
 127:CAN_Stuff.c   ****     latestMessage[latestMessageTail].dlc = CAN_GET_DLC(mailbox);
 393              		.loc 1 127 0 discriminator 4
 394 0056 364B     		ldr	r3, .L27+16
 395 0058 5000     		lsls	r0, r2, #1
 396 005a 8218     		adds	r2, r0, r2
 397 005c 9000     		lsls	r0, r2, #2
 398 005e C152     		strh	r1, [r0, r3]
 128:CAN_Stuff.c   ****     latestMessage[latestMessageTail].data[0] = CAN_RX_DATA_BYTE1(mailbox);
 399              		.loc 1 128 0 is_stmt 1 discriminator 4
 400 0060 2F4A     		ldr	r2, .L27
 401 0062 9178     		ldrb	r1, [r2, #2]
 402 0064 C9B2     		uxtb	r1, r1
 403 0066 2068     		ldr	r0, [r4]
 404 0068 000C     		lsrs	r0, r0, #16
 405 006a 0F25     		movs	r5, #15
 406 006c 2840     		ands	r0, r5
 407 006e 4D00     		lsls	r5, r1, #1
 408 0070 6918     		adds	r1, r5, r1
 409 0072 8D00     		lsls	r5, r1, #2
 410 0074 5D19     		adds	r5, r3, r5
 411 0076 A870     		strb	r0, [r5, #2]
 129:CAN_Stuff.c   ****     latestMessage[latestMessageTail].data[1] = CAN_RX_DATA_BYTE2(mailbox);
 412              		.loc 1 129 0 discriminator 4
 413 0078 9178     		ldrb	r1, [r2, #2]
 414 007a C9B2     		uxtb	r1, r1
 415 007c A568     		ldr	r5, [r4, #8]
 416 007e 2D0E     		lsrs	r5, r5, #24
 417 0080 4800     		lsls	r0, r1, #1
 418 0082 4118     		adds	r1, r0, r1
 419 0084 8800     		lsls	r0, r1, #2
ARM GAS  C:\Users\casey\AppData\Local\Temp\cc41co3d.s 			page 12


 420 0086 1818     		adds	r0, r3, r0
 421 0088 C570     		strb	r5, [r0, #3]
 130:CAN_Stuff.c   ****     latestMessage[latestMessageTail].data[2] = CAN_RX_DATA_BYTE3(mailbox);
 422              		.loc 1 130 0 discriminator 4
 423 008a 9178     		ldrb	r1, [r2, #2]
 424 008c C9B2     		uxtb	r1, r1
 425 008e A068     		ldr	r0, [r4, #8]
 426 0090 000C     		lsrs	r0, r0, #16
 427 0092 C0B2     		uxtb	r0, r0
 428 0094 4D00     		lsls	r5, r1, #1
 429 0096 6918     		adds	r1, r5, r1
 430 0098 8D00     		lsls	r5, r1, #2
 431 009a 5D19     		adds	r5, r3, r5
 432 009c 2871     		strb	r0, [r5, #4]
 131:CAN_Stuff.c   ****     latestMessage[latestMessageTail].data[3] = CAN_RX_DATA_BYTE4(mailbox);
 433              		.loc 1 131 0 discriminator 4
 434 009e 9178     		ldrb	r1, [r2, #2]
 435 00a0 C9B2     		uxtb	r1, r1
 436 00a2 A068     		ldr	r0, [r4, #8]
 437 00a4 000A     		lsrs	r0, r0, #8
 438 00a6 C0B2     		uxtb	r0, r0
 439 00a8 4D00     		lsls	r5, r1, #1
 440 00aa 6918     		adds	r1, r5, r1
 441 00ac 8D00     		lsls	r5, r1, #2
 442 00ae 5D19     		adds	r5, r3, r5
 443 00b0 6871     		strb	r0, [r5, #5]
 132:CAN_Stuff.c   ****     latestMessage[latestMessageTail].data[4] = CAN_RX_DATA_BYTE5(mailbox);
 444              		.loc 1 132 0 discriminator 4
 445 00b2 9178     		ldrb	r1, [r2, #2]
 446 00b4 C9B2     		uxtb	r1, r1
 447 00b6 A568     		ldr	r5, [r4, #8]
 448 00b8 EDB2     		uxtb	r5, r5
 449 00ba 4800     		lsls	r0, r1, #1
 450 00bc 4118     		adds	r1, r0, r1
 451 00be 8800     		lsls	r0, r1, #2
 452 00c0 1818     		adds	r0, r3, r0
 453 00c2 8571     		strb	r5, [r0, #6]
 133:CAN_Stuff.c   ****     latestMessage[latestMessageTail].data[5] = CAN_RX_DATA_BYTE6(mailbox);
 454              		.loc 1 133 0 discriminator 4
 455 00c4 9178     		ldrb	r1, [r2, #2]
 456 00c6 C9B2     		uxtb	r1, r1
 457 00c8 E568     		ldr	r5, [r4, #12]
 458 00ca 2D0E     		lsrs	r5, r5, #24
 459 00cc 4800     		lsls	r0, r1, #1
 460 00ce 4118     		adds	r1, r0, r1
 461 00d0 8800     		lsls	r0, r1, #2
 462 00d2 1818     		adds	r0, r3, r0
 463 00d4 C571     		strb	r5, [r0, #7]
 134:CAN_Stuff.c   ****     latestMessage[latestMessageTail].data[6] = CAN_RX_DATA_BYTE7(mailbox);
 464              		.loc 1 134 0 discriminator 4
 465 00d6 9178     		ldrb	r1, [r2, #2]
 466 00d8 C9B2     		uxtb	r1, r1
 467 00da E068     		ldr	r0, [r4, #12]
 468 00dc 000C     		lsrs	r0, r0, #16
 469 00de C0B2     		uxtb	r0, r0
 470 00e0 4D00     		lsls	r5, r1, #1
 471 00e2 6918     		adds	r1, r5, r1
ARM GAS  C:\Users\casey\AppData\Local\Temp\cc41co3d.s 			page 13


 472 00e4 8D00     		lsls	r5, r1, #2
 473 00e6 5D19     		adds	r5, r3, r5
 474 00e8 2872     		strb	r0, [r5, #8]
 135:CAN_Stuff.c   ****     latestMessage[latestMessageTail].data[7] = CAN_RX_DATA_BYTE8(mailbox);
 475              		.loc 1 135 0 discriminator 4
 476 00ea 9178     		ldrb	r1, [r2, #2]
 477 00ec C9B2     		uxtb	r1, r1
 478 00ee E068     		ldr	r0, [r4, #12]
 479 00f0 000A     		lsrs	r0, r0, #8
 480 00f2 C0B2     		uxtb	r0, r0
 481 00f4 4D00     		lsls	r5, r1, #1
 482 00f6 6918     		adds	r1, r5, r1
 483 00f8 8D00     		lsls	r5, r1, #2
 484 00fa 5D19     		adds	r5, r3, r5
 485 00fc 6872     		strb	r0, [r5, #9]
 136:CAN_Stuff.c   ****     countAddFIFO();
 486              		.loc 1 136 0 discriminator 4
 487 00fe 9278     		ldrb	r2, [r2, #2]
 488 0100 D2B2     		uxtb	r2, r2
 489 0102 E068     		ldr	r0, [r4, #12]
 490 0104 C0B2     		uxtb	r0, r0
 491 0106 5100     		lsls	r1, r2, #1
 492 0108 8A18     		adds	r2, r1, r2
 493 010a 9100     		lsls	r1, r2, #2
 494 010c 5B18     		adds	r3, r3, r1
 495 010e 9872     		strb	r0, [r3, #10]
 137:CAN_Stuff.c   **** 
 496              		.loc 1 137 0 discriminator 4
 497 0110 FFF7FEFF 		bl	countAddFIFO
 498              	.LVL17:
 140:CAN_Stuff.c   **** }
 499              		.loc 1 140 0 discriminator 4
 500 0114 2268     		ldr	r2, [r4]
 501 0116 0123     		movs	r3, #1
 502 0118 1343     		orrs	r3, r2
 503 011a 2360     		str	r3, [r4]
 141:CAN_Stuff.c   **** 
 504              		.loc 1 141 0 discriminator 4
 505              		@ sp needed
 506 011c 70BD     		pop	{r4, r5, r6, pc}
 507              	.L28:
 508 011e C046     		.align	2
 509              	.L27:
 510 0120 00000000 		.word	.LANCHOR0
 511 0124 00002E40 		.word	1076756480
 512 0128 08002E40 		.word	1076756488
 513 012c A0002E40 		.word	1076756640
 514 0130 00000000 		.word	latestMessage
 515              		.cfi_endproc
 516              	.LFE36:
 517              		.size	CAN_FLAG_ISR, .-CAN_FLAG_ISR
 518              		.section	.text.countRemoveFIFO,"ax",%progbits
 519              		.align	2
 520              		.global	countRemoveFIFO
 521              		.code	16
 522              		.thumb_func
 523              		.type	countRemoveFIFO, %function
ARM GAS  C:\Users\casey\AppData\Local\Temp\cc41co3d.s 			page 14


 524              	countRemoveFIFO:
 525              	.LFB40:
 189:CAN_Stuff.c   **** 
 190:CAN_Stuff.c   **** void countRemoveFIFO(){
 526              		.loc 1 190 0
 527              		.cfi_startproc
 528              		@ args = 0, pretend = 0, frame = 0
 529              		@ frame_needed = 0, uses_anonymous_args = 0
 530 0000 10B5     		push	{r4, lr}
 531              		.cfi_def_cfa_offset 8
 532              		.cfi_offset 4, -8
 533              		.cfi_offset 14, -4
 191:CAN_Stuff.c   ****     if(FIFOSize() > 0) {
 534              		.loc 1 191 0
 535 0002 FFF7FEFF 		bl	FIFOSize
 536              	.LVL18:
 537 0006 0028     		cmp	r0, #0
 538 0008 0BD0     		beq	.L29
 192:CAN_Stuff.c   ****         latestMessageHead++;
 539              		.loc 1 192 0
 540 000a 064A     		ldr	r2, .L31
 541 000c 5378     		ldrb	r3, [r2, #1]
 542 000e 0133     		adds	r3, r3, #1
 543 0010 DBB2     		uxtb	r3, r3
 544 0012 5370     		strb	r3, [r2, #1]
 193:CAN_Stuff.c   ****         if(latestMessageHead >= FIFO_SIZE) {
 545              		.loc 1 193 0
 546 0014 5378     		ldrb	r3, [r2, #1]
 547 0016 DBB2     		uxtb	r3, r3
 548 0018 0F2B     		cmp	r3, #15
 549 001a 02D9     		bls	.L29
 194:CAN_Stuff.c   ****             latestMessageHead = 0;
 550              		.loc 1 194 0
 551 001c 0022     		movs	r2, #0
 552 001e 014B     		ldr	r3, .L31
 553 0020 5A70     		strb	r2, [r3, #1]
 554              	.L29:
 195:CAN_Stuff.c   ****         }
 196:CAN_Stuff.c   ****     }
 197:CAN_Stuff.c   **** }
 555              		.loc 1 197 0
 556              		@ sp needed
 557 0022 10BD     		pop	{r4, pc}
 558              	.L32:
 559              		.align	2
 560              	.L31:
 561 0024 00000000 		.word	.LANCHOR0
 562              		.cfi_endproc
 563              	.LFE40:
 564              		.size	countRemoveFIFO, .-countRemoveFIFO
 565              		.section	.text.PollAndReceiveCANPacket,"ax",%progbits
 566              		.align	2
 567              		.global	PollAndReceiveCANPacket
 568              		.code	16
 569              		.thumb_func
 570              		.type	PollAndReceiveCANPacket, %function
 571              	PollAndReceiveCANPacket:
ARM GAS  C:\Users\casey\AppData\Local\Temp\cc41co3d.s 			page 15


 572              	.LFB37:
 144:CAN_Stuff.c   ****     if(!receivedPacket)
 573              		.loc 1 144 0
 574              		.cfi_startproc
 575              		@ args = 0, pretend = 0, frame = 8
 576              		@ frame_needed = 0, uses_anonymous_args = 0
 577              	.LVL19:
 578 0000 10B5     		push	{r4, lr}
 579              		.cfi_def_cfa_offset 8
 580              		.cfi_offset 4, -8
 581              		.cfi_offset 14, -4
 582 0002 82B0     		sub	sp, sp, #8
 583              		.cfi_def_cfa_offset 16
 584 0004 041E     		subs	r4, r0, #0
 145:CAN_Stuff.c   ****         return ERROR_NULL_POINTER;
 585              		.loc 1 145 0
 586 0006 17D0     		beq	.L35
 148:CAN_Stuff.c   ****     if(size)
 587              		.loc 1 148 0
 588 0008 FFF7FEFF 		bl	FIFOSize
 589              	.LVL20:
 590 000c 6B46     		mov	r3, sp
 591 000e D871     		strb	r0, [r3, #7]
 592 0010 0733     		adds	r3, r3, #7
 149:CAN_Stuff.c   ****     {
 593              		.loc 1 149 0
 594 0012 1B78     		ldrb	r3, [r3]
 595 0014 002B     		cmp	r3, #0
 596 0016 11D0     		beq	.L36
 151:CAN_Stuff.c   ****         countRemoveFIFO();
 597              		.loc 1 151 0
 598 0018 0A4B     		ldr	r3, .L37
 599 001a 5B78     		ldrb	r3, [r3, #1]
 600 001c DBB2     		uxtb	r3, r3
 601 001e 5A00     		lsls	r2, r3, #1
 602 0020 D318     		adds	r3, r2, r3
 603 0022 9900     		lsls	r1, r3, #2
 604 0024 084B     		ldr	r3, .L37+4
 605 0026 5918     		adds	r1, r3, r1
 606 0028 0C22     		movs	r2, #12
 607 002a 2000     		movs	r0, r4
 608 002c FFF7FEFF 		bl	memcpy
 609              	.LVL21:
 152:CAN_Stuff.c   ****         return ERROR_NONE;
 610              		.loc 1 152 0
 611 0030 FFF7FEFF 		bl	countRemoveFIFO
 612              	.LVL22:
 153:CAN_Stuff.c   ****     }
 613              		.loc 1 153 0
 614 0034 0020     		movs	r0, #0
 615 0036 02E0     		b	.L34
 616              	.LVL23:
 617              	.L35:
 146:CAN_Stuff.c   ****     
 618              		.loc 1 146 0
 619 0038 0220     		movs	r0, #2
 620              	.LVL24:
ARM GAS  C:\Users\casey\AppData\Local\Temp\cc41co3d.s 			page 16


 621 003a 00E0     		b	.L34
 622              	.L36:
 156:CAN_Stuff.c   **** }
 623              		.loc 1 156 0
 624 003c 0220     		movs	r0, #2
 625              	.L34:
 157:CAN_Stuff.c   **** 
 626              		.loc 1 157 0
 627 003e 02B0     		add	sp, sp, #8
 628              		@ sp needed
 629              	.LVL25:
 630 0040 10BD     		pop	{r4, pc}
 631              	.L38:
 632 0042 C046     		.align	2
 633              	.L37:
 634 0044 00000000 		.word	.LANCHOR0
 635 0048 00000000 		.word	latestMessage
 636              		.cfi_endproc
 637              	.LFE37:
 638              		.size	PollAndReceiveCANPacket, .-PollAndReceiveCANPacket
 639              		.section	.text.s2x,"ax",%progbits
 640              		.align	2
 641              		.global	s2x
 642              		.code	16
 643              		.thumb_func
 644              		.type	s2x, %function
 645              	s2x:
 646              	.LFB41:
 647              		.file 2 "UART_Interface.c"
   1:UART_Interface.c **** /* ========================================
   2:UART_Interface.c ****  *
   3:UART_Interface.c ****  * Copyright YOUR COMPANY, THE YEAR
   4:UART_Interface.c ****  * All Rights Reserved
   5:UART_Interface.c ****  * UNPUBLISHED, LICENSED SOFTWARE.
   6:UART_Interface.c ****  *
   7:UART_Interface.c ****  * CONFIDENTIAL AND PROPRIETARY INFORMATION
   8:UART_Interface.c ****  * WHICH IS THE PROPERTY OF your company.
   9:UART_Interface.c ****  *
  10:UART_Interface.c ****  * ========================================
  11:UART_Interface.c **** */
  12:UART_Interface.c **** #include "project.h"
  13:UART_Interface.c **** #include "cytypes.h"
  14:UART_Interface.c **** #include "cyfitter.h"
  15:UART_Interface.c **** #include "CAN_Stuff.c"
  16:UART_Interface.c **** 
  17:UART_Interface.c **** char8 uart_tx[100];
  18:UART_Interface.c **** char8 uart_rx[100];
  19:UART_Interface.c **** 
  20:UART_Interface.c **** uint8 s2x(char8 c) {
 648              		.loc 2 20 0
 649              		.cfi_startproc
 650              		@ args = 0, pretend = 0, frame = 0
 651              		@ frame_needed = 0, uses_anonymous_args = 0
 652              		@ link register save eliminated.
 653              	.LVL26:
  21:UART_Interface.c ****     switch(c) {
 654              		.loc 2 21 0
ARM GAS  C:\Users\casey\AppData\Local\Temp\cc41co3d.s 			page 17


 655 0000 3138     		subs	r0, r0, #49
 656              	.LVL27:
 657 0002 C3B2     		uxtb	r3, r0
 658 0004 352B     		cmp	r3, #53
 659 0006 2BD8     		bhi	.L40
 660 0008 9800     		lsls	r0, r3, #2
 661 000a 174B     		ldr	r3, .L64
 662 000c 1B58     		ldr	r3, [r3, r0]
 663 000e 9F46     		mov	pc, r3
 664              		.section	.rodata
 665              		.align	2
 666              	.L42:
 667 0000 10000000 		.word	.L41
 668 0004 64000000 		.word	.L63
 669 0008 14000000 		.word	.L44
 670 000c 18000000 		.word	.L45
 671 0010 1C000000 		.word	.L46
 672 0014 20000000 		.word	.L47
 673 0018 24000000 		.word	.L48
 674 001c 28000000 		.word	.L49
 675 0020 2C000000 		.word	.L50
 676 0024 60000000 		.word	.L40
 677 0028 60000000 		.word	.L40
 678 002c 60000000 		.word	.L40
 679 0030 60000000 		.word	.L40
 680 0034 60000000 		.word	.L40
 681 0038 60000000 		.word	.L40
 682 003c 60000000 		.word	.L40
 683 0040 30000000 		.word	.L51
 684 0044 34000000 		.word	.L52
 685 0048 38000000 		.word	.L53
 686 004c 3C000000 		.word	.L54
 687 0050 40000000 		.word	.L55
 688 0054 44000000 		.word	.L56
 689 0058 60000000 		.word	.L40
 690 005c 60000000 		.word	.L40
 691 0060 60000000 		.word	.L40
 692 0064 60000000 		.word	.L40
 693 0068 60000000 		.word	.L40
 694 006c 60000000 		.word	.L40
 695 0070 60000000 		.word	.L40
 696 0074 60000000 		.word	.L40
 697 0078 60000000 		.word	.L40
 698 007c 60000000 		.word	.L40
 699 0080 60000000 		.word	.L40
 700 0084 60000000 		.word	.L40
 701 0088 60000000 		.word	.L40
 702 008c 60000000 		.word	.L40
 703 0090 60000000 		.word	.L40
 704 0094 60000000 		.word	.L40
 705 0098 60000000 		.word	.L40
 706 009c 60000000 		.word	.L40
 707 00a0 60000000 		.word	.L40
 708 00a4 60000000 		.word	.L40
 709 00a8 60000000 		.word	.L40
 710 00ac 60000000 		.word	.L40
 711 00b0 60000000 		.word	.L40
ARM GAS  C:\Users\casey\AppData\Local\Temp\cc41co3d.s 			page 18


 712 00b4 60000000 		.word	.L40
 713 00b8 60000000 		.word	.L40
 714 00bc 60000000 		.word	.L40
 715 00c0 48000000 		.word	.L57
 716 00c4 4C000000 		.word	.L58
 717 00c8 50000000 		.word	.L59
 718 00cc 54000000 		.word	.L60
 719 00d0 58000000 		.word	.L61
 720 00d4 5C000000 		.word	.L62
 721              		.section	.text.s2x
 722              	.L41:
  22:UART_Interface.c ****         case '1': return 1; case '2': return 2;
 723              		.loc 2 22 0
 724 0010 0120     		movs	r0, #1
 725 0012 28E0     		b	.L43
 726              	.L44:
  23:UART_Interface.c ****         case '3': return 3; case '4': return 4;
 727              		.loc 2 23 0
 728 0014 0320     		movs	r0, #3
 729 0016 26E0     		b	.L43
 730              	.L45:
 731 0018 0420     		movs	r0, #4
 732 001a 24E0     		b	.L43
 733              	.L46:
  24:UART_Interface.c ****         case '5': return 5; case '6': return 6;
 734              		.loc 2 24 0
 735 001c 0520     		movs	r0, #5
 736 001e 22E0     		b	.L43
 737              	.L47:
 738 0020 0620     		movs	r0, #6
 739 0022 20E0     		b	.L43
 740              	.L48:
  25:UART_Interface.c ****         case '7': return 7; case '8': return 8;
 741              		.loc 2 25 0
 742 0024 0720     		movs	r0, #7
 743 0026 1EE0     		b	.L43
 744              	.L49:
 745 0028 0820     		movs	r0, #8
 746 002a 1CE0     		b	.L43
 747              	.L50:
  26:UART_Interface.c ****         case '9': return 9; case 'A': return 10;
 748              		.loc 2 26 0
 749 002c 0920     		movs	r0, #9
 750 002e 1AE0     		b	.L43
 751              	.L51:
 752 0030 0A20     		movs	r0, #10
 753 0032 18E0     		b	.L43
 754              	.L52:
  27:UART_Interface.c ****         case 'B': return 11;case 'C': return 12;
 755              		.loc 2 27 0
 756 0034 0B20     		movs	r0, #11
 757 0036 16E0     		b	.L43
 758              	.L53:
 759 0038 0C20     		movs	r0, #12
 760 003a 14E0     		b	.L43
 761              	.L54:
  28:UART_Interface.c ****         case 'D': return 13;case 'E': return 14;
ARM GAS  C:\Users\casey\AppData\Local\Temp\cc41co3d.s 			page 19


 762              		.loc 2 28 0
 763 003c 0D20     		movs	r0, #13
 764 003e 12E0     		b	.L43
 765              	.L55:
 766 0040 0E20     		movs	r0, #14
 767 0042 10E0     		b	.L43
 768              	.L56:
  29:UART_Interface.c ****         case 'F': return 15;case 'a': return 10;
 769              		.loc 2 29 0
 770 0044 0F20     		movs	r0, #15
 771 0046 0EE0     		b	.L43
 772              	.L57:
 773 0048 0A20     		movs	r0, #10
 774 004a 0CE0     		b	.L43
 775              	.L58:
  30:UART_Interface.c ****         case 'b': return 11;case 'c': return 12;
 776              		.loc 2 30 0
 777 004c 0B20     		movs	r0, #11
 778 004e 0AE0     		b	.L43
 779              	.L59:
 780 0050 0C20     		movs	r0, #12
 781 0052 08E0     		b	.L43
 782              	.L60:
  31:UART_Interface.c ****         case 'd': return 13;case 'e': return 14;
 783              		.loc 2 31 0
 784 0054 0D20     		movs	r0, #13
 785 0056 06E0     		b	.L43
 786              	.L61:
 787 0058 0E20     		movs	r0, #14
 788 005a 04E0     		b	.L43
 789              	.L62:
  32:UART_Interface.c ****         case 'f': return 15;default:  return 0;
 790              		.loc 2 32 0
 791 005c 0F20     		movs	r0, #15
 792 005e 02E0     		b	.L43
 793              	.L40:
 794 0060 0020     		movs	r0, #0
 795 0062 00E0     		b	.L43
 796              	.L63:
  22:UART_Interface.c ****         case '3': return 3; case '4': return 4;
 797              		.loc 2 22 0
 798 0064 0220     		movs	r0, #2
 799              	.L43:
  33:UART_Interface.c ****     }
  34:UART_Interface.c **** }
 800              		.loc 2 34 0
 801              		@ sp needed
 802 0066 7047     		bx	lr
 803              	.L65:
 804              		.align	2
 805              	.L64:
 806 0068 00000000 		.word	.L42
 807              		.cfi_endproc
 808              	.LFE41:
 809              		.size	s2x, .-s2x
 810              		.section	.text.parseLine,"ax",%progbits
 811              		.align	2
ARM GAS  C:\Users\casey\AppData\Local\Temp\cc41co3d.s 			page 20


 812              		.global	parseLine
 813              		.code	16
 814              		.thumb_func
 815              		.type	parseLine, %function
 816              	parseLine:
 817              	.LFB42:
  35:UART_Interface.c **** 
  36:UART_Interface.c **** CANPacket parseLine(CANPacket* p, char8 line[]) {
 818              		.loc 2 36 0
 819              		.cfi_startproc
 820              		@ args = 0, pretend = 0, frame = 8
 821              		@ frame_needed = 0, uses_anonymous_args = 0
 822              	.LVL28:
 823 0000 F0B5     		push	{r4, r5, r6, r7, lr}
 824              		.cfi_def_cfa_offset 20
 825              		.cfi_offset 4, -20
 826              		.cfi_offset 5, -16
 827              		.cfi_offset 6, -12
 828              		.cfi_offset 7, -8
 829              		.cfi_offset 14, -4
 830 0002 5746     		mov	r7, r10
 831 0004 4646     		mov	r6, r8
 832 0006 C0B4     		push	{r6, r7}
 833              		.cfi_def_cfa_offset 28
 834              		.cfi_offset 8, -28
 835              		.cfi_offset 10, -24
 836 0008 83B0     		sub	sp, sp, #12
 837              		.cfi_def_cfa_offset 40
 838 000a 0190     		str	r0, [sp, #4]
 839 000c 8846     		mov	r8, r1
 840 000e 1600     		movs	r6, r2
  37:UART_Interface.c ****     uint16 pr = (uint16) s2x(line[0]) << 10;
 841              		.loc 2 37 0
 842 0010 1078     		ldrb	r0, [r2]
 843              	.LVL29:
 844 0012 FFF7FEFF 		bl	s2x
 845              	.LVL30:
 846 0016 8002     		lsls	r0, r0, #10
 847 0018 85B2     		uxth	r5, r0
 848              	.LVL31:
  38:UART_Interface.c ****     uint16 dg = (uint16) s2x(line[2]) << 6;
 849              		.loc 2 38 0
 850 001a B078     		ldrb	r0, [r6, #2]
 851 001c FFF7FEFF 		bl	s2x
 852              	.LVL32:
 853 0020 8001     		lsls	r0, r0, #6
 854 0022 84B2     		uxth	r4, r0
 855              	.LVL33:
  39:UART_Interface.c ****     uint16 sn = (uint16) s2x(line[4]) << 4 | s2x(line[5]);
 856              		.loc 2 39 0
 857 0024 3079     		ldrb	r0, [r6, #4]
 858 0026 FFF7FEFF 		bl	s2x
 859              	.LVL34:
 860 002a 0701     		lsls	r7, r0, #4
 861 002c 7079     		ldrb	r0, [r6, #5]
 862 002e FFF7FEFF 		bl	s2x
 863              	.LVL35:
ARM GAS  C:\Users\casey\AppData\Local\Temp\cc41co3d.s 			page 21


 864 0032 3843     		orrs	r0, r7
 865 0034 80B2     		uxth	r0, r0
 866              	.LVL36:
  40:UART_Interface.c ****     p->id = (pr | dg | sn);
 867              		.loc 2 40 0
 868 0036 2C43     		orrs	r4, r5
 869              	.LVL37:
 870 0038 0443     		orrs	r4, r0
 871 003a 4346     		mov	r3, r8
 872 003c 1C80     		strh	r4, [r3]
  41:UART_Interface.c ****     p->dlc = 8;
 873              		.loc 2 41 0
 874 003e 0823     		movs	r3, #8
 875 0040 4246     		mov	r2, r8
 876 0042 9370     		strb	r3, [r2, #2]
 877              	.LVL38:
 878              	.LBB2:
  42:UART_Interface.c ****     
  43:UART_Interface.c ****     for (uint8 i = 0; i < 8; i++) {
 879              		.loc 2 43 0
 880 0044 0024     		movs	r4, #0
 881 0046 17E0     		b	.L67
 882              	.LVL39:
 883              	.L69:
  44:UART_Interface.c ****         p->data[i] = i < p->dlc ? 
 884              		.loc 2 44 0
 885 0048 2700     		movs	r7, r4
 886 004a 072C     		cmp	r4, #7
 887 004c 0FD8     		bhi	.L70
  45:UART_Interface.c ****                     (s2x(line[3*i+7])<<4) | s2x(line[3*i+8]) : 0;
 888              		.loc 2 45 0 discriminator 1
 889 004e 6500     		lsls	r5, r4, #1
 890 0050 2D19     		adds	r5, r5, r4
 891 0052 EB1D     		adds	r3, r5, #7
 892 0054 F05C     		ldrb	r0, [r6, r3]
 893 0056 FFF7FEFF 		bl	s2x
 894              	.LVL40:
 895 005a 0301     		lsls	r3, r0, #4
 896 005c 9A46     		mov	r10, r3
 897 005e 0835     		adds	r5, r5, #8
 898 0060 705D     		ldrb	r0, [r6, r5]
 899 0062 FFF7FEFF 		bl	s2x
 900              	.LVL41:
  44:UART_Interface.c ****         p->data[i] = i < p->dlc ? 
 901              		.loc 2 44 0 discriminator 1
 902 0066 5346     		mov	r3, r10
 903 0068 1843     		orrs	r0, r3
 904 006a C0B2     		uxtb	r0, r0
 905 006c 00E0     		b	.L68
 906              	.L70:
  44:UART_Interface.c ****         p->data[i] = i < p->dlc ? 
 907              		.loc 2 44 0 is_stmt 0
 908 006e 0020     		movs	r0, #0
 909              	.L68:
  44:UART_Interface.c ****         p->data[i] = i < p->dlc ? 
 910              		.loc 2 44 0 discriminator 4
 911 0070 4744     		add	r7, r7, r8
ARM GAS  C:\Users\casey\AppData\Local\Temp\cc41co3d.s 			page 22


 912 0072 F870     		strb	r0, [r7, #3]
  43:UART_Interface.c ****         p->data[i] = i < p->dlc ? 
 913              		.loc 2 43 0 is_stmt 1 discriminator 4
 914 0074 0134     		adds	r4, r4, #1
 915              	.LVL42:
 916 0076 E4B2     		uxtb	r4, r4
 917              	.LVL43:
 918              	.L67:
  43:UART_Interface.c ****         p->data[i] = i < p->dlc ? 
 919              		.loc 2 43 0 is_stmt 0 discriminator 2
 920 0078 072C     		cmp	r4, #7
 921 007a E5D9     		bls	.L69
 922              	.LBE2:
  46:UART_Interface.c ****     }
  47:UART_Interface.c **** }
 923              		.loc 2 47 0 is_stmt 1
 924 007c 0198     		ldr	r0, [sp, #4]
 925 007e 03B0     		add	sp, sp, #12
 926              		@ sp needed
 927              	.LVL44:
 928              	.LVL45:
 929              	.LVL46:
 930 0080 0CBC     		pop	{r2, r3}
 931 0082 9046     		mov	r8, r2
 932 0084 9A46     		mov	r10, r3
 933 0086 F0BD     		pop	{r4, r5, r6, r7, pc}
 934              		.cfi_endproc
 935              	.LFE42:
 936              		.size	parseLine, .-parseLine
 937              		.section	.text.decodeFromBytes,"ax",%progbits
 938              		.align	2
 939              		.global	decodeFromBytes
 940              		.code	16
 941              		.thumb_func
 942              		.type	decodeFromBytes, %function
 943              	decodeFromBytes:
 944              	.LFB43:
  48:UART_Interface.c **** 
  49:UART_Interface.c **** uint32_t decodeFromBytes(int msb_index, int lsb_index, uint8_t data[]) {       
 945              		.loc 2 49 0
 946              		.cfi_startproc
 947              		@ args = 0, pretend = 0, frame = 0
 948              		@ frame_needed = 0, uses_anonymous_args = 0
 949              	.LVL47:
 950 0000 10B5     		push	{r4, lr}
 951              		.cfi_def_cfa_offset 8
 952              		.cfi_offset 4, -8
 953              		.cfi_offset 14, -4
 954 0002 0300     		movs	r3, r0
 955              	.LVL48:
  50:UART_Interface.c ****     uint32_t result = 0;
  51:UART_Interface.c ****     if (msb_index < lsb_index)
 956              		.loc 2 51 0
 957 0004 8842     		cmp	r0, r1
 958 0006 06DB     		blt	.L77
 959 0008 0020     		movs	r0, #0
 960              	.LVL49:
ARM GAS  C:\Users\casey\AppData\Local\Temp\cc41co3d.s 			page 23


 961 000a 0CE0     		b	.L73
 962              	.LVL50:
 963              	.L74:
 964              	.LBB3:
  52:UART_Interface.c ****         for (int i = msb_index; i <= lsb_index; i++)
  53:UART_Interface.c ****             result = result << 8 | data[i];
 965              		.loc 2 53 0 discriminator 3
 966 000c 0002     		lsls	r0, r0, #8
 967              	.LVL51:
 968 000e D45C     		ldrb	r4, [r2, r3]
 969 0010 2043     		orrs	r0, r4
 970              	.LVL52:
  52:UART_Interface.c ****         for (int i = msb_index; i <= lsb_index; i++)
 971              		.loc 2 52 0 discriminator 3
 972 0012 0133     		adds	r3, r3, #1
 973              	.LVL53:
 974 0014 00E0     		b	.L72
 975              	.LVL54:
 976              	.L77:
 977              	.LBE3:
 978 0016 0020     		movs	r0, #0
 979              	.LVL55:
 980              	.L72:
 981              	.LBB4:
  52:UART_Interface.c ****         for (int i = msb_index; i <= lsb_index; i++)
 982              		.loc 2 52 0 is_stmt 0 discriminator 1
 983 0018 8B42     		cmp	r3, r1
 984 001a F7DD     		ble	.L74
 985 001c 05E0     		b	.L75
 986              	.LVL56:
 987              	.L76:
 988              	.LBE4:
 989              	.LBB5:
  54:UART_Interface.c ****     else
  55:UART_Interface.c ****         for (int i = msb_index; i >= lsb_index; i--)
  56:UART_Interface.c ****             result = (result | data[i]) << 8;
 990              		.loc 2 56 0 is_stmt 1 discriminator 3
 991 001e D45C     		ldrb	r4, [r2, r3]
 992 0020 2043     		orrs	r0, r4
 993              	.LVL57:
 994 0022 0002     		lsls	r0, r0, #8
 995              	.LVL58:
  55:UART_Interface.c ****             result = (result | data[i]) << 8;
 996              		.loc 2 55 0 discriminator 3
 997 0024 013B     		subs	r3, r3, #1
 998              	.LVL59:
 999              	.L73:
  55:UART_Interface.c ****             result = (result | data[i]) << 8;
 1000              		.loc 2 55 0 is_stmt 0 discriminator 1
 1001 0026 8B42     		cmp	r3, r1
 1002 0028 F9DA     		bge	.L76
 1003              	.LVL60:
 1004              	.L75:
 1005              	.LBE5:
  57:UART_Interface.c ****     return result;
  58:UART_Interface.c **** }
 1006              		.loc 2 58 0 is_stmt 1
ARM GAS  C:\Users\casey\AppData\Local\Temp\cc41co3d.s 			page 24


 1007              		@ sp needed
 1008 002a 10BD     		pop	{r4, pc}
 1009              		.cfi_endproc
 1010              	.LFE43:
 1011              		.size	decodeFromBytes, .-decodeFromBytes
 1012              		.section	.text.printPacket,"ax",%progbits
 1013              		.align	2
 1014              		.global	printPacket
 1015              		.code	16
 1016              		.thumb_func
 1017              		.type	printPacket, %function
 1018              	printPacket:
 1019              	.LFB44:
  59:UART_Interface.c **** 
  60:UART_Interface.c **** void printPacket(CANPacket* packet) {
 1020              		.loc 2 60 0
 1021              		.cfi_startproc
 1022              		@ args = 0, pretend = 0, frame = 104
 1023              		@ frame_needed = 0, uses_anonymous_args = 0
 1024              	.LVL61:
 1025 0000 70B5     		push	{r4, r5, r6, lr}
 1026              		.cfi_def_cfa_offset 16
 1027              		.cfi_offset 4, -16
 1028              		.cfi_offset 5, -12
 1029              		.cfi_offset 6, -8
 1030              		.cfi_offset 14, -4
 1031 0002 9CB0     		sub	sp, sp, #112
 1032              		.cfi_def_cfa_offset 128
 1033 0004 0400     		movs	r4, r0
  61:UART_Interface.c ****     char8 info[100];
  62:UART_Interface.c ****     uint8_t packetID = packet->data[0];
 1034              		.loc 2 62 0
 1035 0006 C578     		ldrb	r5, [r0, #3]
 1036              	.LVL62:
  63:UART_Interface.c ****     sprintf(info,"id: %#02X ",packetID);
 1037              		.loc 2 63 0
 1038 0008 2A00     		movs	r2, r5
 1039 000a 1F49     		ldr	r1, .L85
 1040 000c 03A8     		add	r0, sp, #12
 1041              	.LVL63:
 1042 000e FFF7FEFF 		bl	sprintf
 1043              	.LVL64:
  64:UART_Interface.c ****     UART_UartPutString(info);
 1044              		.loc 2 64 0
 1045 0012 03A8     		add	r0, sp, #12
 1046 0014 FFF7FEFF 		bl	UART_UartPutString
 1047              	.LVL65:
  65:UART_Interface.c ****     switch(packetID) {
 1048              		.loc 2 65 0
 1049 0018 092D     		cmp	r5, #9
 1050 001a 1DD0     		beq	.L80
 1051 001c F62D     		cmp	r5, #246
 1052 001e 0CD0     		beq	.L81
 1053 0020 032D     		cmp	r5, #3
 1054 0022 20D1     		bne	.L84
  66:UART_Interface.c ****         case 0x03: // PWM Set
  67:UART_Interface.c ****             sprintf(info,"pwm_val: %i",(int16_t) decodeFromBytes(1,2,packet->data));
ARM GAS  C:\Users\casey\AppData\Local\Temp\cc41co3d.s 			page 25


 1055              		.loc 2 67 0
 1056 0024 E21C     		adds	r2, r4, #3
 1057 0026 0221     		movs	r1, #2
 1058 0028 0120     		movs	r0, #1
 1059 002a FFF7FEFF 		bl	decodeFromBytes
 1060              	.LVL66:
 1061 002e 02B2     		sxth	r2, r0
 1062 0030 1649     		ldr	r1, .L85+4
 1063 0032 03A8     		add	r0, sp, #12
 1064 0034 FFF7FEFF 		bl	sprintf
 1065              	.LVL67:
  68:UART_Interface.c ****             break;
 1066              		.loc 2 68 0
 1067 0038 1EE0     		b	.L83
 1068              	.L81:
  69:UART_Interface.c ****         case 0xF6: // Telemetry Report
  70:UART_Interface.c ****             sprintf(info,"SN: %#02X TTC: %#02X data: %i",packet->data[1],packet->data[2],(int32_t) 
 1069              		.loc 2 70 0
 1070 003a 2579     		ldrb	r5, [r4, #4]
 1071              	.LVL68:
 1072 003c 6679     		ldrb	r6, [r4, #5]
 1073 003e E21C     		adds	r2, r4, #3
 1074 0040 0621     		movs	r1, #6
 1075 0042 0320     		movs	r0, #3
 1076 0044 FFF7FEFF 		bl	decodeFromBytes
 1077              	.LVL69:
 1078 0048 0090     		str	r0, [sp]
 1079 004a 3300     		movs	r3, r6
 1080 004c 2A00     		movs	r2, r5
 1081 004e 1049     		ldr	r1, .L85+8
 1082 0050 03A8     		add	r0, sp, #12
 1083 0052 FFF7FEFF 		bl	sprintf
 1084              	.LVL70:
  71:UART_Interface.c ****             break;
 1085              		.loc 2 71 0
 1086 0056 0FE0     		b	.L83
 1087              	.LVL71:
 1088              	.L80:
  72:UART_Interface.c ****         case 0x09:
  73:UART_Interface.c ****             sprintf(info,"SN: %#02X val: %i LIMIT##################################################
 1089              		.loc 2 73 0
 1090 0058 2279     		ldrb	r2, [r4, #4]
 1091 005a 6379     		ldrb	r3, [r4, #5]
 1092 005c 0D49     		ldr	r1, .L85+12
 1093 005e 03A8     		add	r0, sp, #12
 1094 0060 FFF7FEFF 		bl	sprintf
 1095              	.LVL72:
  74:UART_Interface.c ****             break;
 1096              		.loc 2 74 0
 1097 0064 08E0     		b	.L83
 1098              	.L84:
  75:UART_Interface.c ****         default:
  76:UART_Interface.c ****             sprintf(info,"not recognized");
 1099              		.loc 2 76 0
 1100 0066 03AB     		add	r3, sp, #12
 1101 0068 0B4A     		ldr	r2, .L85+16
 1102 006a 13CA     		ldmia	r2!, {r0, r1, r4}
ARM GAS  C:\Users\casey\AppData\Local\Temp\cc41co3d.s 			page 26


 1103 006c 13C3     		stmia	r3!, {r0, r1, r4}
 1104              	.LVL73:
 1105 006e 1900     		movs	r1, r3
 1106 0070 1388     		ldrh	r3, [r2]
 1107 0072 0B80     		strh	r3, [r1]
 1108 0074 9378     		ldrb	r3, [r2, #2]
 1109 0076 8B70     		strb	r3, [r1, #2]
 1110              	.LVL74:
 1111              	.L83:
  77:UART_Interface.c ****     }
  78:UART_Interface.c ****     UART_UartPutString(info);
 1112              		.loc 2 78 0
 1113 0078 03A8     		add	r0, sp, #12
 1114 007a FFF7FEFF 		bl	UART_UartPutString
 1115              	.LVL75:
  79:UART_Interface.c ****     UART_UartPutString("\r\n");
 1116              		.loc 2 79 0
 1117 007e 0748     		ldr	r0, .L85+20
 1118 0080 FFF7FEFF 		bl	UART_UartPutString
 1119              	.LVL76:
  80:UART_Interface.c **** }
 1120              		.loc 2 80 0
 1121 0084 1CB0     		add	sp, sp, #112
 1122              		@ sp needed
 1123 0086 70BD     		pop	{r4, r5, r6, pc}
 1124              	.L86:
 1125              		.align	2
 1126              	.L85:
 1127 0088 00000000 		.word	.LC10
 1128 008c 0C000000 		.word	.LC12
 1129 0090 18000000 		.word	.LC14
 1130 0094 38000000 		.word	.LC16
 1131 0098 8C000000 		.word	.LC18
 1132 009c 9C000000 		.word	.LC20
 1133              		.cfi_endproc
 1134              	.LFE44:
 1135              		.size	printPacket, .-printPacket
 1136              		.comm	uart_rx,100,4
 1137              		.comm	uart_tx,100,4
 1138              		.global	CAN_time_LED
 1139              		.global	receiveMailboxNumber
 1140              		.comm	messagePWM,16,4
 1141              		.comm	packet,12,4
 1142              		.global	mailbox
 1143              		.comm	rxMailbox,16,4
 1144              		.comm	deviceGroup,4,4
 1145              		.comm	deviceAddress,4,4
 1146              		.global	latestMessageFull
 1147              		.global	latestMessageTail
 1148              		.global	latestMessageHead
 1149              		.comm	latestMessage,192,4
 1150              		.global	messageReadFlag
 1151              		.global	messagePresentFlag
 1152              		.data
 1153              		.type	receiveMailboxNumber, %object
 1154              		.size	receiveMailboxNumber, 1
 1155              	receiveMailboxNumber:
ARM GAS  C:\Users\casey\AppData\Local\Temp\cc41co3d.s 			page 27


 1156 0000 FF       		.byte	-1
 1157              		.type	messagePresentFlag, %object
 1158              		.size	messagePresentFlag, 1
 1159              	messagePresentFlag:
 1160 0001 FF       		.byte	-1
 1161              		.section	.rodata.str1.4,"aMS",%progbits,1
 1162              		.align	2
 1163              	.LC10:
 1164 0000 69643A20 		.ascii	"id: %#02X \000"
 1164      25233032 
 1164      582000
 1165 000b 00       		.space	1
 1166              	.LC12:
 1167 000c 70776D5F 		.ascii	"pwm_val: %i\000"
 1167      76616C3A 
 1167      20256900 
 1168              	.LC14:
 1169 0018 534E3A20 		.ascii	"SN: %#02X TTC: %#02X data: %i\000"
 1169      25233032 
 1169      58205454 
 1169      433A2025 
 1169      23303258 
 1170 0036 0000     		.space	2
 1171              	.LC16:
 1172 0038 534E3A20 		.ascii	"SN: %#02X val: %i LIMIT############################"
 1172      25233032 
 1172      58207661 
 1172      6C3A2025 
 1172      69204C49 
 1173 006b 23232323 		.ascii	"##############################\000"
 1173      23232323 
 1173      23232323 
 1173      23232323 
 1173      23232323 
 1174 008a 0000     		.space	2
 1175              	.LC18:
 1176 008c 6E6F7420 		.ascii	"not recognized\000"
 1176      7265636F 
 1176      676E697A 
 1176      656400
 1177 009b 00       		.space	1
 1178              	.LC20:
 1179 009c 0D0A00   		.ascii	"\015\012\000"
 1180              		.bss
 1181              		.align	2
 1182              		.set	.LANCHOR0,. + 0
 1183              		.type	latestMessageFull, %object
 1184              		.size	latestMessageFull, 1
 1185              	latestMessageFull:
 1186 0000 00       		.space	1
 1187              		.type	latestMessageHead, %object
 1188              		.size	latestMessageHead, 1
 1189              	latestMessageHead:
 1190 0001 00       		.space	1
 1191              		.type	latestMessageTail, %object
 1192              		.size	latestMessageTail, 1
 1193              	latestMessageTail:
ARM GAS  C:\Users\casey\AppData\Local\Temp\cc41co3d.s 			page 28


 1194 0002 00       		.space	1
 1195 0003 00       		.space	1
 1196              		.type	CAN_time_LED, %object
 1197              		.size	CAN_time_LED, 2
 1198              	CAN_time_LED:
 1199 0004 0000     		.space	2
 1200 0006 0000     		.space	2
 1201              		.type	mailbox, %object
 1202              		.size	mailbox, 4
 1203              	mailbox:
 1204 0008 00000000 		.space	4
 1205              		.type	messageReadFlag, %object
 1206              		.size	messageReadFlag, 1
 1207              	messageReadFlag:
 1208 000c 00       		.space	1
 1209              		.text
 1210              	.Letext0:
 1211              		.file 3 "c:\\program files (x86)\\cypress\\psoc creator\\4.4\\psoc creator\\import\\gnu\\arm\\5.4.
 1212              		.file 4 "c:\\program files (x86)\\cypress\\psoc creator\\4.4\\psoc creator\\import\\gnu\\arm\\5.4.
 1213              		.file 5 "Generated_Source\\PSoC4/cytypes.h"
 1214              		.file 6 "Generated_Source\\PSoC4/CAN.h"
 1215              		.file 7 "Generated_Source\\PSoC4/CyLib.h"
 1216              		.file 8 "<built-in>"
 1217              		.file 9 "Generated_Source\\PSoC4/UART_SPI_UART.h"